

Microchip Technology PIC LITE Macro Assembler V1.41 build -162212810 
                                                                                               Thu Apr 06 15:39:13 2017

Microchip Technology Omniscient Code Generator v1.41 (Free mode) build 201701250102
     1                           	processor	16F18345
     2                           	opt	pw 120
     3                           	opt	lm
     4                           	psect	nvCOMMON,global,class=COMMON,space=1,delta=1
     5                           	psect	cinit,global,class=CODE,merge=1,delta=2
     6                           	psect	bssBANK0,global,class=BANK0,space=1,delta=1
     7                           	psect	cstackCOMMON,global,class=COMMON,space=1,delta=1
     8                           	psect	cstackBANK0,global,class=BANK0,space=1,delta=1
     9                           	psect	maintext,global,class=CODE,merge=1,split=1,delta=2
    10                           	psect	text1,local,class=CODE,merge=1,delta=2
    11                           	psect	text2,local,class=CODE,merge=1,delta=2
    12                           	psect	text3,local,class=CODE,merge=1,delta=2
    13                           	psect	text4,local,class=CODE,merge=1,delta=2
    14                           	psect	text5,local,class=CODE,merge=1,delta=2
    15                           	psect	text6,local,class=CODE,merge=1,delta=2
    16                           	psect	text7,local,class=CODE,merge=1,delta=2
    17                           	psect	intentry,global,class=CODE,delta=2
    18                           	psect	text9,local,class=CODE,merge=1,delta=2
    19                           	psect	text10,local,class=CODE,merge=1,delta=2
    20                           	psect	text11,local,class=CODE,merge=1,delta=2
    21                           	psect	text12,local,class=CODE,merge=1,delta=2
    22                           	psect	text13,local,class=CODE,merge=1,delta=2
    23                           	dabs	1,0x7E,2
    24  0000                     
    25                           ; Version 1.41
    26                           ; Generated 25/01/2017 GMT
    27                           ; 
    28                           ; Copyright © 2017, Microchip Technology Inc. and its subsidiaries ("Microchip")
    29                           ; All rights reserved.
    30                           ; 
    31                           ; This software is developed by Microchip Technology Inc. and its subsidiaries ("Microch
      +                          ip").
    32                           ; 
    33                           ; Redistribution and use in source and binary forms, with or without modification, are
    34                           ; permitted provided that the following conditions are met:
    35                           ; 
    36                           ;     1. Redistributions of source code must retain the above copyright notice, this lis
      +                          t of
    37                           ;        conditions and the following disclaimer.
    38                           ; 
    39                           ;     2. Redistributions in binary form must reproduce the above copyright notice, this 
      +                          list
    40                           ;        of conditions and the following disclaimer in the documentation and/or other
    41                           ;        materials provided with the distribution.
    42                           ; 
    43                           ;     3. Microchip's name may not be used to endorse or promote products derived from th
      +                          is
    44                           ;        software without specific prior written permission.
    45                           ; 
    46                           ; THIS SOFTWARE IS PROVIDED BY MICROCHIP "AS IS" AND ANY EXPRESS OR IMPLIED WARRANTIES,
    47                           ; INCLUDING, BUT NOT LIMITED TO, THE IMPLIED WARRANTIES OF MERCHANTABILITY AND FITNESS F
      +                          OR
    48                           ; PURPOSE ARE DISCLAIMED.  IN NO EVENT SHALL MICROCHIP BE LIABLE FOR ANY DIRECT, INDIREC
      +                          T,
    49                           ; INCIDENTAL, SPECIAL, EXEMPLARY, OR CONSEQUENTIAL DAMAGES (INCLUDING BUT NOT LIMITED TO
    50                           ; PROCUREMENT OF SUBSTITUTE GOODS OR SERVICES; LOSS OF USE, DATA OR PROFITS; OR BUSINESS
    51                           ; INTERRUPTION) HOWSOEVER CAUSED AND ON ANY THEORY OF LIABILITY, WHETHER IN CONTRACT, ST
      +                          RICT
    52                           ; LIABILITY, OR TORT (INCLUDING NEGLIGENCE OR OTHERWISE) ARISING IN ANY WAY OUT OF THE U
      +                          SE OF
    53                           ; THIS SOFTWARE, EVEN IF ADVISED OF THE POSSIBILITY OF SUCH DAMAGE.
    54                           ; 
    55                           ; 
    56                           ; Code-generator required, PIC16F18345 Definitions
    57                           ; 
    58                           ; SFR Addresses
    59  0000                     	;# 
    60  0001                     	;# 
    61  0002                     	;# 
    62  0003                     	;# 
    63  0004                     	;# 
    64  0005                     	;# 
    65  0006                     	;# 
    66  0007                     	;# 
    67  0008                     	;# 
    68  0009                     	;# 
    69  000A                     	;# 
    70  000B                     	;# 
    71  000C                     	;# 
    72  000D                     	;# 
    73  000E                     	;# 
    74  0010                     	;# 
    75  0011                     	;# 
    76  0012                     	;# 
    77  0013                     	;# 
    78  0014                     	;# 
    79  0015                     	;# 
    80  0015                     	;# 
    81  0016                     	;# 
    82  0016                     	;# 
    83  0017                     	;# 
    84  0018                     	;# 
    85  0019                     	;# 
    86  0019                     	;# 
    87  001A                     	;# 
    88  001B                     	;# 
    89  001C                     	;# 
    90  001D                     	;# 
    91  001E                     	;# 
    92  001F                     	;# 
    93  008C                     	;# 
    94  008D                     	;# 
    95  008E                     	;# 
    96  0090                     	;# 
    97  0091                     	;# 
    98  0092                     	;# 
    99  0093                     	;# 
   100  0094                     	;# 
   101  0097                     	;# 
   102  009B                     	;# 
   103  009B                     	;# 
   104  009C                     	;# 
   105  009D                     	;# 
   106  009E                     	;# 
   107  009F                     	;# 
   108  010C                     	;# 
   109  010D                     	;# 
   110  010E                     	;# 
   111  0111                     	;# 
   112  0112                     	;# 
   113  0113                     	;# 
   114  0114                     	;# 
   115  0115                     	;# 
   116  0116                     	;# 
   117  0117                     	;# 
   118  0118                     	;# 
   119  0119                     	;# 
   120  018C                     	;# 
   121  018D                     	;# 
   122  018E                     	;# 
   123  0197                     	;# 
   124  0199                     	;# 
   125  0199                     	;# 
   126  0199                     	;# 
   127  019A                     	;# 
   128  019A                     	;# 
   129  019A                     	;# 
   130  019B                     	;# 
   131  019B                     	;# 
   132  019B                     	;# 
   133  019B                     	;# 
   134  019B                     	;# 
   135  019C                     	;# 
   136  019C                     	;# 
   137  019C                     	;# 
   138  019D                     	;# 
   139  019D                     	;# 
   140  019D                     	;# 
   141  019E                     	;# 
   142  019E                     	;# 
   143  019E                     	;# 
   144  019F                     	;# 
   145  019F                     	;# 
   146  019F                     	;# 
   147  019F                     	;# 
   148  019F                     	;# 
   149  020C                     	;# 
   150  020D                     	;# 
   151  020E                     	;# 
   152  0211                     	;# 
   153  0211                     	;# 
   154  0212                     	;# 
   155  0212                     	;# 
   156  0213                     	;# 
   157  0213                     	;# 
   158  0214                     	;# 
   159  0214                     	;# 
   160  0215                     	;# 
   161  0215                     	;# 
   162  0215                     	;# 
   163  0215                     	;# 
   164  0216                     	;# 
   165  0216                     	;# 
   166  0217                     	;# 
   167  0217                     	;# 
   168  0219                     	;# 
   169  021A                     	;# 
   170  021B                     	;# 
   171  021C                     	;# 
   172  021D                     	;# 
   173  021D                     	;# 
   174  021E                     	;# 
   175  021F                     	;# 
   176  028C                     	;# 
   177  028D                     	;# 
   178  028E                     	;# 
   179  0291                     	;# 
   180  0291                     	;# 
   181  0292                     	;# 
   182  0293                     	;# 
   183  0294                     	;# 
   184  0295                     	;# 
   185  0295                     	;# 
   186  0296                     	;# 
   187  0297                     	;# 
   188  0298                     	;# 
   189  029F                     	;# 
   190  030C                     	;# 
   191  030D                     	;# 
   192  030E                     	;# 
   193  0311                     	;# 
   194  0311                     	;# 
   195  0312                     	;# 
   196  0313                     	;# 
   197  0314                     	;# 
   198  0315                     	;# 
   199  0315                     	;# 
   200  0316                     	;# 
   201  0317                     	;# 
   202  0318                     	;# 
   203  038C                     	;# 
   204  038D                     	;# 
   205  038E                     	;# 
   206  0391                     	;# 
   207  0392                     	;# 
   208  0393                     	;# 
   209  0394                     	;# 
   210  0395                     	;# 
   211  0396                     	;# 
   212  0397                     	;# 
   213  0398                     	;# 
   214  0399                     	;# 
   215  039A                     	;# 
   216  039C                     	;# 
   217  039D                     	;# 
   218  039E                     	;# 
   219  039F                     	;# 
   220  0411                     	;# 
   221  0411                     	;# 
   222  0412                     	;# 
   223  0413                     	;# 
   224  0414                     	;# 
   225  0415                     	;# 
   226  0416                     	;# 
   227  0417                     	;# 
   228  0418                     	;# 
   229  0418                     	;# 
   230  0419                     	;# 
   231  041A                     	;# 
   232  041B                     	;# 
   233  041C                     	;# 
   234  041D                     	;# 
   235  041E                     	;# 
   236  041F                     	;# 
   237  0498                     	;# 
   238  0498                     	;# 
   239  0499                     	;# 
   240  049A                     	;# 
   241  049B                     	;# 
   242  049B                     	;# 
   243  049C                     	;# 
   244  049D                     	;# 
   245  049E                     	;# 
   246  049F                     	;# 
   247  0617                     	;# 
   248  0618                     	;# 
   249  0619                     	;# 
   250  0619                     	;# 
   251  061A                     	;# 
   252  061B                     	;# 
   253  061C                     	;# 
   254  061C                     	;# 
   255  061F                     	;# 
   256  0691                     	;# 
   257  0692                     	;# 
   258  0693                     	;# 
   259  0694                     	;# 
   260  0695                     	;# 
   261  0696                     	;# 
   262  0697                     	;# 
   263  0698                     	;# 
   264  0699                     	;# 
   265  0711                     	;# 
   266  0712                     	;# 
   267  0713                     	;# 
   268  0714                     	;# 
   269  0715                     	;# 
   270  0716                     	;# 
   271  0717                     	;# 
   272  0718                     	;# 
   273  0719                     	;# 
   274  0891                     	;# 
   275  0891                     	;# 
   276  0891                     	;# 
   277  0891                     	;# 
   278  0891                     	;# 
   279  0891                     	;# 
   280  0892                     	;# 
   281  0892                     	;# 
   282  0892                     	;# 
   283  0893                     	;# 
   284  0893                     	;# 
   285  0893                     	;# 
   286  0893                     	;# 
   287  0893                     	;# 
   288  0893                     	;# 
   289  0894                     	;# 
   290  0894                     	;# 
   291  0894                     	;# 
   292  0895                     	;# 
   293  0895                     	;# 
   294  0895                     	;# 
   295  0896                     	;# 
   296  0896                     	;# 
   297  0896                     	;# 
   298  089B                     	;# 
   299  0911                     	;# 
   300  0912                     	;# 
   301  0913                     	;# 
   302  0914                     	;# 
   303  0915                     	;# 
   304  0916                     	;# 
   305  0918                     	;# 
   306  0919                     	;# 
   307  091A                     	;# 
   308  091B                     	;# 
   309  091C                     	;# 
   310  091D                     	;# 
   311  091E                     	;# 
   312  091F                     	;# 
   313  0E0F                     	;# 
   314  0E10                     	;# 
   315  0E11                     	;# 
   316  0E12                     	;# 
   317  0E13                     	;# 
   318  0E14                     	;# 
   319  0E15                     	;# 
   320  0E16                     	;# 
   321  0E17                     	;# 
   322  0E18                     	;# 
   323  0E19                     	;# 
   324  0E1A                     	;# 
   325  0E1B                     	;# 
   326  0E1C                     	;# 
   327  0E1D                     	;# 
   328  0E1E                     	;# 
   329  0E1F                     	;# 
   330  0E20                     	;# 
   331  0E21                     	;# 
   332  0E22                     	;# 
   333  0E24                     	;# 
   334  0E25                     	;# 
   335  0E28                     	;# 
   336  0E29                     	;# 
   337  0E2A                     	;# 
   338  0E2B                     	;# 
   339  0E2C                     	;# 
   340  0E2D                     	;# 
   341  0E2E                     	;# 
   342  0E2F                     	;# 
   343  0E90                     	;# 
   344  0E91                     	;# 
   345  0E92                     	;# 
   346  0E94                     	;# 
   347  0E95                     	;# 
   348  0E9C                     	;# 
   349  0E9D                     	;# 
   350  0E9E                     	;# 
   351  0E9F                     	;# 
   352  0EA0                     	;# 
   353  0EA1                     	;# 
   354  0EA2                     	;# 
   355  0EA3                     	;# 
   356  0EA4                     	;# 
   357  0EA5                     	;# 
   358  0EA6                     	;# 
   359  0EA7                     	;# 
   360  0F0F                     	;# 
   361  0F10                     	;# 
   362  0F11                     	;# 
   363  0F12                     	;# 
   364  0F13                     	;# 
   365  0F14                     	;# 
   366  0F15                     	;# 
   367  0F16                     	;# 
   368  0F17                     	;# 
   369  0F18                     	;# 
   370  0F19                     	;# 
   371  0F1A                     	;# 
   372  0F1B                     	;# 
   373  0F1C                     	;# 
   374  0F1D                     	;# 
   375  0F1E                     	;# 
   376  0F1F                     	;# 
   377  0F20                     	;# 
   378  0F21                     	;# 
   379  0F22                     	;# 
   380  0F23                     	;# 
   381  0F24                     	;# 
   382  0F25                     	;# 
   383  0F26                     	;# 
   384  0F27                     	;# 
   385  0F28                     	;# 
   386  0F29                     	;# 
   387  0F2A                     	;# 
   388  0F2B                     	;# 
   389  0F2C                     	;# 
   390  0F2D                     	;# 
   391  0F2E                     	;# 
   392  0F2F                     	;# 
   393  0F30                     	;# 
   394  0F31                     	;# 
   395  0F32                     	;# 
   396  0F33                     	;# 
   397  0F34                     	;# 
   398  0F35                     	;# 
   399  0F36                     	;# 
   400  0F37                     	;# 
   401  0FE4                     	;# 
   402  0FE5                     	;# 
   403  0FE6                     	;# 
   404  0FE7                     	;# 
   405  0FE8                     	;# 
   406  0FE9                     	;# 
   407  0FEA                     	;# 
   408  0FEB                     	;# 
   409  0FED                     	;# 
   410  0FEE                     	;# 
   411  0FEF                     	;# 
   412  0000                     	;# 
   413  0001                     	;# 
   414  0002                     	;# 
   415  0003                     	;# 
   416  0004                     	;# 
   417  0005                     	;# 
   418  0006                     	;# 
   419  0007                     	;# 
   420  0008                     	;# 
   421  0009                     	;# 
   422  000A                     	;# 
   423  000B                     	;# 
   424  000C                     	;# 
   425  000D                     	;# 
   426  000E                     	;# 
   427  0010                     	;# 
   428  0011                     	;# 
   429  0012                     	;# 
   430  0013                     	;# 
   431  0014                     	;# 
   432  0015                     	;# 
   433  0015                     	;# 
   434  0016                     	;# 
   435  0016                     	;# 
   436  0017                     	;# 
   437  0018                     	;# 
   438  0019                     	;# 
   439  0019                     	;# 
   440  001A                     	;# 
   441  001B                     	;# 
   442  001C                     	;# 
   443  001D                     	;# 
   444  001E                     	;# 
   445  001F                     	;# 
   446  008C                     	;# 
   447  008D                     	;# 
   448  008E                     	;# 
   449  0090                     	;# 
   450  0091                     	;# 
   451  0092                     	;# 
   452  0093                     	;# 
   453  0094                     	;# 
   454  0097                     	;# 
   455  009B                     	;# 
   456  009B                     	;# 
   457  009C                     	;# 
   458  009D                     	;# 
   459  009E                     	;# 
   460  009F                     	;# 
   461  010C                     	;# 
   462  010D                     	;# 
   463  010E                     	;# 
   464  0111                     	;# 
   465  0112                     	;# 
   466  0113                     	;# 
   467  0114                     	;# 
   468  0115                     	;# 
   469  0116                     	;# 
   470  0117                     	;# 
   471  0118                     	;# 
   472  0119                     	;# 
   473  018C                     	;# 
   474  018D                     	;# 
   475  018E                     	;# 
   476  0197                     	;# 
   477  0199                     	;# 
   478  0199                     	;# 
   479  0199                     	;# 
   480  019A                     	;# 
   481  019A                     	;# 
   482  019A                     	;# 
   483  019B                     	;# 
   484  019B                     	;# 
   485  019B                     	;# 
   486  019B                     	;# 
   487  019B                     	;# 
   488  019C                     	;# 
   489  019C                     	;# 
   490  019C                     	;# 
   491  019D                     	;# 
   492  019D                     	;# 
   493  019D                     	;# 
   494  019E                     	;# 
   495  019E                     	;# 
   496  019E                     	;# 
   497  019F                     	;# 
   498  019F                     	;# 
   499  019F                     	;# 
   500  019F                     	;# 
   501  019F                     	;# 
   502  020C                     	;# 
   503  020D                     	;# 
   504  020E                     	;# 
   505  0211                     	;# 
   506  0211                     	;# 
   507  0212                     	;# 
   508  0212                     	;# 
   509  0213                     	;# 
   510  0213                     	;# 
   511  0214                     	;# 
   512  0214                     	;# 
   513  0215                     	;# 
   514  0215                     	;# 
   515  0215                     	;# 
   516  0215                     	;# 
   517  0216                     	;# 
   518  0216                     	;# 
   519  0217                     	;# 
   520  0217                     	;# 
   521  0219                     	;# 
   522  021A                     	;# 
   523  021B                     	;# 
   524  021C                     	;# 
   525  021D                     	;# 
   526  021D                     	;# 
   527  021E                     	;# 
   528  021F                     	;# 
   529  028C                     	;# 
   530  028D                     	;# 
   531  028E                     	;# 
   532  0291                     	;# 
   533  0291                     	;# 
   534  0292                     	;# 
   535  0293                     	;# 
   536  0294                     	;# 
   537  0295                     	;# 
   538  0295                     	;# 
   539  0296                     	;# 
   540  0297                     	;# 
   541  0298                     	;# 
   542  029F                     	;# 
   543  030C                     	;# 
   544  030D                     	;# 
   545  030E                     	;# 
   546  0311                     	;# 
   547  0311                     	;# 
   548  0312                     	;# 
   549  0313                     	;# 
   550  0314                     	;# 
   551  0315                     	;# 
   552  0315                     	;# 
   553  0316                     	;# 
   554  0317                     	;# 
   555  0318                     	;# 
   556  038C                     	;# 
   557  038D                     	;# 
   558  038E                     	;# 
   559  0391                     	;# 
   560  0392                     	;# 
   561  0393                     	;# 
   562  0394                     	;# 
   563  0395                     	;# 
   564  0396                     	;# 
   565  0397                     	;# 
   566  0398                     	;# 
   567  0399                     	;# 
   568  039A                     	;# 
   569  039C                     	;# 
   570  039D                     	;# 
   571  039E                     	;# 
   572  039F                     	;# 
   573  0411                     	;# 
   574  0411                     	;# 
   575  0412                     	;# 
   576  0413                     	;# 
   577  0414                     	;# 
   578  0415                     	;# 
   579  0416                     	;# 
   580  0417                     	;# 
   581  0418                     	;# 
   582  0418                     	;# 
   583  0419                     	;# 
   584  041A                     	;# 
   585  041B                     	;# 
   586  041C                     	;# 
   587  041D                     	;# 
   588  041E                     	;# 
   589  041F                     	;# 
   590  0498                     	;# 
   591  0498                     	;# 
   592  0499                     	;# 
   593  049A                     	;# 
   594  049B                     	;# 
   595  049B                     	;# 
   596  049C                     	;# 
   597  049D                     	;# 
   598  049E                     	;# 
   599  049F                     	;# 
   600  0617                     	;# 
   601  0618                     	;# 
   602  0619                     	;# 
   603  0619                     	;# 
   604  061A                     	;# 
   605  061B                     	;# 
   606  061C                     	;# 
   607  061C                     	;# 
   608  061F                     	;# 
   609  0691                     	;# 
   610  0692                     	;# 
   611  0693                     	;# 
   612  0694                     	;# 
   613  0695                     	;# 
   614  0696                     	;# 
   615  0697                     	;# 
   616  0698                     	;# 
   617  0699                     	;# 
   618  0711                     	;# 
   619  0712                     	;# 
   620  0713                     	;# 
   621  0714                     	;# 
   622  0715                     	;# 
   623  0716                     	;# 
   624  0717                     	;# 
   625  0718                     	;# 
   626  0719                     	;# 
   627  0891                     	;# 
   628  0891                     	;# 
   629  0891                     	;# 
   630  0891                     	;# 
   631  0891                     	;# 
   632  0891                     	;# 
   633  0892                     	;# 
   634  0892                     	;# 
   635  0892                     	;# 
   636  0893                     	;# 
   637  0893                     	;# 
   638  0893                     	;# 
   639  0893                     	;# 
   640  0893                     	;# 
   641  0893                     	;# 
   642  0894                     	;# 
   643  0894                     	;# 
   644  0894                     	;# 
   645  0895                     	;# 
   646  0895                     	;# 
   647  0895                     	;# 
   648  0896                     	;# 
   649  0896                     	;# 
   650  0896                     	;# 
   651  089B                     	;# 
   652  0911                     	;# 
   653  0912                     	;# 
   654  0913                     	;# 
   655  0914                     	;# 
   656  0915                     	;# 
   657  0916                     	;# 
   658  0918                     	;# 
   659  0919                     	;# 
   660  091A                     	;# 
   661  091B                     	;# 
   662  091C                     	;# 
   663  091D                     	;# 
   664  091E                     	;# 
   665  091F                     	;# 
   666  0E0F                     	;# 
   667  0E10                     	;# 
   668  0E11                     	;# 
   669  0E12                     	;# 
   670  0E13                     	;# 
   671  0E14                     	;# 
   672  0E15                     	;# 
   673  0E16                     	;# 
   674  0E17                     	;# 
   675  0E18                     	;# 
   676  0E19                     	;# 
   677  0E1A                     	;# 
   678  0E1B                     	;# 
   679  0E1C                     	;# 
   680  0E1D                     	;# 
   681  0E1E                     	;# 
   682  0E1F                     	;# 
   683  0E20                     	;# 
   684  0E21                     	;# 
   685  0E22                     	;# 
   686  0E24                     	;# 
   687  0E25                     	;# 
   688  0E28                     	;# 
   689  0E29                     	;# 
   690  0E2A                     	;# 
   691  0E2B                     	;# 
   692  0E2C                     	;# 
   693  0E2D                     	;# 
   694  0E2E                     	;# 
   695  0E2F                     	;# 
   696  0E90                     	;# 
   697  0E91                     	;# 
   698  0E92                     	;# 
   699  0E94                     	;# 
   700  0E95                     	;# 
   701  0E9C                     	;# 
   702  0E9D                     	;# 
   703  0E9E                     	;# 
   704  0E9F                     	;# 
   705  0EA0                     	;# 
   706  0EA1                     	;# 
   707  0EA2                     	;# 
   708  0EA3                     	;# 
   709  0EA4                     	;# 
   710  0EA5                     	;# 
   711  0EA6                     	;# 
   712  0EA7                     	;# 
   713  0F0F                     	;# 
   714  0F10                     	;# 
   715  0F11                     	;# 
   716  0F12                     	;# 
   717  0F13                     	;# 
   718  0F14                     	;# 
   719  0F15                     	;# 
   720  0F16                     	;# 
   721  0F17                     	;# 
   722  0F18                     	;# 
   723  0F19                     	;# 
   724  0F1A                     	;# 
   725  0F1B                     	;# 
   726  0F1C                     	;# 
   727  0F1D                     	;# 
   728  0F1E                     	;# 
   729  0F1F                     	;# 
   730  0F20                     	;# 
   731  0F21                     	;# 
   732  0F22                     	;# 
   733  0F23                     	;# 
   734  0F24                     	;# 
   735  0F25                     	;# 
   736  0F26                     	;# 
   737  0F27                     	;# 
   738  0F28                     	;# 
   739  0F29                     	;# 
   740  0F2A                     	;# 
   741  0F2B                     	;# 
   742  0F2C                     	;# 
   743  0F2D                     	;# 
   744  0F2E                     	;# 
   745  0F2F                     	;# 
   746  0F30                     	;# 
   747  0F31                     	;# 
   748  0F32                     	;# 
   749  0F33                     	;# 
   750  0F34                     	;# 
   751  0F35                     	;# 
   752  0F36                     	;# 
   753  0F37                     	;# 
   754  0FE4                     	;# 
   755  0FE5                     	;# 
   756  0FE6                     	;# 
   757  0FE7                     	;# 
   758  0FE8                     	;# 
   759  0FE9                     	;# 
   760  0FEA                     	;# 
   761  0FEB                     	;# 
   762  0FED                     	;# 
   763  0FEE                     	;# 
   764  0FEF                     	;# 
   765  0000                     	;# 
   766  0001                     	;# 
   767  0002                     	;# 
   768  0003                     	;# 
   769  0004                     	;# 
   770  0005                     	;# 
   771  0006                     	;# 
   772  0007                     	;# 
   773  0008                     	;# 
   774  0009                     	;# 
   775  000A                     	;# 
   776  000B                     	;# 
   777  000C                     	;# 
   778  000D                     	;# 
   779  000E                     	;# 
   780  0010                     	;# 
   781  0011                     	;# 
   782  0012                     	;# 
   783  0013                     	;# 
   784  0014                     	;# 
   785  0015                     	;# 
   786  0015                     	;# 
   787  0016                     	;# 
   788  0016                     	;# 
   789  0017                     	;# 
   790  0018                     	;# 
   791  0019                     	;# 
   792  0019                     	;# 
   793  001A                     	;# 
   794  001B                     	;# 
   795  001C                     	;# 
   796  001D                     	;# 
   797  001E                     	;# 
   798  001F                     	;# 
   799  008C                     	;# 
   800  008D                     	;# 
   801  008E                     	;# 
   802  0090                     	;# 
   803  0091                     	;# 
   804  0092                     	;# 
   805  0093                     	;# 
   806  0094                     	;# 
   807  0097                     	;# 
   808  009B                     	;# 
   809  009B                     	;# 
   810  009C                     	;# 
   811  009D                     	;# 
   812  009E                     	;# 
   813  009F                     	;# 
   814  010C                     	;# 
   815  010D                     	;# 
   816  010E                     	;# 
   817  0111                     	;# 
   818  0112                     	;# 
   819  0113                     	;# 
   820  0114                     	;# 
   821  0115                     	;# 
   822  0116                     	;# 
   823  0117                     	;# 
   824  0118                     	;# 
   825  0119                     	;# 
   826  018C                     	;# 
   827  018D                     	;# 
   828  018E                     	;# 
   829  0197                     	;# 
   830  0199                     	;# 
   831  0199                     	;# 
   832  0199                     	;# 
   833  019A                     	;# 
   834  019A                     	;# 
   835  019A                     	;# 
   836  019B                     	;# 
   837  019B                     	;# 
   838  019B                     	;# 
   839  019B                     	;# 
   840  019B                     	;# 
   841  019C                     	;# 
   842  019C                     	;# 
   843  019C                     	;# 
   844  019D                     	;# 
   845  019D                     	;# 
   846  019D                     	;# 
   847  019E                     	;# 
   848  019E                     	;# 
   849  019E                     	;# 
   850  019F                     	;# 
   851  019F                     	;# 
   852  019F                     	;# 
   853  019F                     	;# 
   854  019F                     	;# 
   855  020C                     	;# 
   856  020D                     	;# 
   857  020E                     	;# 
   858  0211                     	;# 
   859  0211                     	;# 
   860  0212                     	;# 
   861  0212                     	;# 
   862  0213                     	;# 
   863  0213                     	;# 
   864  0214                     	;# 
   865  0214                     	;# 
   866  0215                     	;# 
   867  0215                     	;# 
   868  0215                     	;# 
   869  0215                     	;# 
   870  0216                     	;# 
   871  0216                     	;# 
   872  0217                     	;# 
   873  0217                     	;# 
   874  0219                     	;# 
   875  021A                     	;# 
   876  021B                     	;# 
   877  021C                     	;# 
   878  021D                     	;# 
   879  021D                     	;# 
   880  021E                     	;# 
   881  021F                     	;# 
   882  028C                     	;# 
   883  028D                     	;# 
   884  028E                     	;# 
   885  0291                     	;# 
   886  0291                     	;# 
   887  0292                     	;# 
   888  0293                     	;# 
   889  0294                     	;# 
   890  0295                     	;# 
   891  0295                     	;# 
   892  0296                     	;# 
   893  0297                     	;# 
   894  0298                     	;# 
   895  029F                     	;# 
   896  030C                     	;# 
   897  030D                     	;# 
   898  030E                     	;# 
   899  0311                     	;# 
   900  0311                     	;# 
   901  0312                     	;# 
   902  0313                     	;# 
   903  0314                     	;# 
   904  0315                     	;# 
   905  0315                     	;# 
   906  0316                     	;# 
   907  0317                     	;# 
   908  0318                     	;# 
   909  038C                     	;# 
   910  038D                     	;# 
   911  038E                     	;# 
   912  0391                     	;# 
   913  0392                     	;# 
   914  0393                     	;# 
   915  0394                     	;# 
   916  0395                     	;# 
   917  0396                     	;# 
   918  0397                     	;# 
   919  0398                     	;# 
   920  0399                     	;# 
   921  039A                     	;# 
   922  039C                     	;# 
   923  039D                     	;# 
   924  039E                     	;# 
   925  039F                     	;# 
   926  0411                     	;# 
   927  0411                     	;# 
   928  0412                     	;# 
   929  0413                     	;# 
   930  0414                     	;# 
   931  0415                     	;# 
   932  0416                     	;# 
   933  0417                     	;# 
   934  0418                     	;# 
   935  0418                     	;# 
   936  0419                     	;# 
   937  041A                     	;# 
   938  041B                     	;# 
   939  041C                     	;# 
   940  041D                     	;# 
   941  041E                     	;# 
   942  041F                     	;# 
   943  0498                     	;# 
   944  0498                     	;# 
   945  0499                     	;# 
   946  049A                     	;# 
   947  049B                     	;# 
   948  049B                     	;# 
   949  049C                     	;# 
   950  049D                     	;# 
   951  049E                     	;# 
   952  049F                     	;# 
   953  0617                     	;# 
   954  0618                     	;# 
   955  0619                     	;# 
   956  0619                     	;# 
   957  061A                     	;# 
   958  061B                     	;# 
   959  061C                     	;# 
   960  061C                     	;# 
   961  061F                     	;# 
   962  0691                     	;# 
   963  0692                     	;# 
   964  0693                     	;# 
   965  0694                     	;# 
   966  0695                     	;# 
   967  0696                     	;# 
   968  0697                     	;# 
   969  0698                     	;# 
   970  0699                     	;# 
   971  0711                     	;# 
   972  0712                     	;# 
   973  0713                     	;# 
   974  0714                     	;# 
   975  0715                     	;# 
   976  0716                     	;# 
   977  0717                     	;# 
   978  0718                     	;# 
   979  0719                     	;# 
   980  0891                     	;# 
   981  0891                     	;# 
   982  0891                     	;# 
   983  0891                     	;# 
   984  0891                     	;# 
   985  0891                     	;# 
   986  0892                     	;# 
   987  0892                     	;# 
   988  0892                     	;# 
   989  0893                     	;# 
   990  0893                     	;# 
   991  0893                     	;# 
   992  0893                     	;# 
   993  0893                     	;# 
   994  0893                     	;# 
   995  0894                     	;# 
   996  0894                     	;# 
   997  0894                     	;# 
   998  0895                     	;# 
   999  0895                     	;# 
  1000  0895                     	;# 
  1001  0896                     	;# 
  1002  0896                     	;# 
  1003  0896                     	;# 
  1004  089B                     	;# 
  1005  0911                     	;# 
  1006  0912                     	;# 
  1007  0913                     	;# 
  1008  0914                     	;# 
  1009  0915                     	;# 
  1010  0916                     	;# 
  1011  0918                     	;# 
  1012  0919                     	;# 
  1013  091A                     	;# 
  1014  091B                     	;# 
  1015  091C                     	;# 
  1016  091D                     	;# 
  1017  091E                     	;# 
  1018  091F                     	;# 
  1019  0E0F                     	;# 
  1020  0E10                     	;# 
  1021  0E11                     	;# 
  1022  0E12                     	;# 
  1023  0E13                     	;# 
  1024  0E14                     	;# 
  1025  0E15                     	;# 
  1026  0E16                     	;# 
  1027  0E17                     	;# 
  1028  0E18                     	;# 
  1029  0E19                     	;# 
  1030  0E1A                     	;# 
  1031  0E1B                     	;# 
  1032  0E1C                     	;# 
  1033  0E1D                     	;# 
  1034  0E1E                     	;# 
  1035  0E1F                     	;# 
  1036  0E20                     	;# 
  1037  0E21                     	;# 
  1038  0E22                     	;# 
  1039  0E24                     	;# 
  1040  0E25                     	;# 
  1041  0E28                     	;# 
  1042  0E29                     	;# 
  1043  0E2A                     	;# 
  1044  0E2B                     	;# 
  1045  0E2C                     	;# 
  1046  0E2D                     	;# 
  1047  0E2E                     	;# 
  1048  0E2F                     	;# 
  1049  0E90                     	;# 
  1050  0E91                     	;# 
  1051  0E92                     	;# 
  1052  0E94                     	;# 
  1053  0E95                     	;# 
  1054  0E9C                     	;# 
  1055  0E9D                     	;# 
  1056  0E9E                     	;# 
  1057  0E9F                     	;# 
  1058  0EA0                     	;# 
  1059  0EA1                     	;# 
  1060  0EA2                     	;# 
  1061  0EA3                     	;# 
  1062  0EA4                     	;# 
  1063  0EA5                     	;# 
  1064  0EA6                     	;# 
  1065  0EA7                     	;# 
  1066  0F0F                     	;# 
  1067  0F10                     	;# 
  1068  0F11                     	;# 
  1069  0F12                     	;# 
  1070  0F13                     	;# 
  1071  0F14                     	;# 
  1072  0F15                     	;# 
  1073  0F16                     	;# 
  1074  0F17                     	;# 
  1075  0F18                     	;# 
  1076  0F19                     	;# 
  1077  0F1A                     	;# 
  1078  0F1B                     	;# 
  1079  0F1C                     	;# 
  1080  0F1D                     	;# 
  1081  0F1E                     	;# 
  1082  0F1F                     	;# 
  1083  0F20                     	;# 
  1084  0F21                     	;# 
  1085  0F22                     	;# 
  1086  0F23                     	;# 
  1087  0F24                     	;# 
  1088  0F25                     	;# 
  1089  0F26                     	;# 
  1090  0F27                     	;# 
  1091  0F28                     	;# 
  1092  0F29                     	;# 
  1093  0F2A                     	;# 
  1094  0F2B                     	;# 
  1095  0F2C                     	;# 
  1096  0F2D                     	;# 
  1097  0F2E                     	;# 
  1098  0F2F                     	;# 
  1099  0F30                     	;# 
  1100  0F31                     	;# 
  1101  0F32                     	;# 
  1102  0F33                     	;# 
  1103  0F34                     	;# 
  1104  0F35                     	;# 
  1105  0F36                     	;# 
  1106  0F37                     	;# 
  1107  0FE4                     	;# 
  1108  0FE5                     	;# 
  1109  0FE6                     	;# 
  1110  0FE7                     	;# 
  1111  0FE8                     	;# 
  1112  0FE9                     	;# 
  1113  0FEA                     	;# 
  1114  0FEB                     	;# 
  1115  0FED                     	;# 
  1116  0FEE                     	;# 
  1117  0FEF                     	;# 
  1118  0000                     	;# 
  1119  0001                     	;# 
  1120  0002                     	;# 
  1121  0003                     	;# 
  1122  0004                     	;# 
  1123  0005                     	;# 
  1124  0006                     	;# 
  1125  0007                     	;# 
  1126  0008                     	;# 
  1127  0009                     	;# 
  1128  000A                     	;# 
  1129  000B                     	;# 
  1130  000C                     	;# 
  1131  000D                     	;# 
  1132  000E                     	;# 
  1133  0010                     	;# 
  1134  0011                     	;# 
  1135  0012                     	;# 
  1136  0013                     	;# 
  1137  0014                     	;# 
  1138  0015                     	;# 
  1139  0015                     	;# 
  1140  0016                     	;# 
  1141  0016                     	;# 
  1142  0017                     	;# 
  1143  0018                     	;# 
  1144  0019                     	;# 
  1145  0019                     	;# 
  1146  001A                     	;# 
  1147  001B                     	;# 
  1148  001C                     	;# 
  1149  001D                     	;# 
  1150  001E                     	;# 
  1151  001F                     	;# 
  1152  008C                     	;# 
  1153  008D                     	;# 
  1154  008E                     	;# 
  1155  0090                     	;# 
  1156  0091                     	;# 
  1157  0092                     	;# 
  1158  0093                     	;# 
  1159  0094                     	;# 
  1160  0097                     	;# 
  1161  009B                     	;# 
  1162  009B                     	;# 
  1163  009C                     	;# 
  1164  009D                     	;# 
  1165  009E                     	;# 
  1166  009F                     	;# 
  1167  010C                     	;# 
  1168  010D                     	;# 
  1169  010E                     	;# 
  1170  0111                     	;# 
  1171  0112                     	;# 
  1172  0113                     	;# 
  1173  0114                     	;# 
  1174  0115                     	;# 
  1175  0116                     	;# 
  1176  0117                     	;# 
  1177  0118                     	;# 
  1178  0119                     	;# 
  1179  018C                     	;# 
  1180  018D                     	;# 
  1181  018E                     	;# 
  1182  0197                     	;# 
  1183  0199                     	;# 
  1184  0199                     	;# 
  1185  0199                     	;# 
  1186  019A                     	;# 
  1187  019A                     	;# 
  1188  019A                     	;# 
  1189  019B                     	;# 
  1190  019B                     	;# 
  1191  019B                     	;# 
  1192  019B                     	;# 
  1193  019B                     	;# 
  1194  019C                     	;# 
  1195  019C                     	;# 
  1196  019C                     	;# 
  1197  019D                     	;# 
  1198  019D                     	;# 
  1199  019D                     	;# 
  1200  019E                     	;# 
  1201  019E                     	;# 
  1202  019E                     	;# 
  1203  019F                     	;# 
  1204  019F                     	;# 
  1205  019F                     	;# 
  1206  019F                     	;# 
  1207  019F                     	;# 
  1208  020C                     	;# 
  1209  020D                     	;# 
  1210  020E                     	;# 
  1211  0211                     	;# 
  1212  0211                     	;# 
  1213  0212                     	;# 
  1214  0212                     	;# 
  1215  0213                     	;# 
  1216  0213                     	;# 
  1217  0214                     	;# 
  1218  0214                     	;# 
  1219  0215                     	;# 
  1220  0215                     	;# 
  1221  0215                     	;# 
  1222  0215                     	;# 
  1223  0216                     	;# 
  1224  0216                     	;# 
  1225  0217                     	;# 
  1226  0217                     	;# 
  1227  0219                     	;# 
  1228  021A                     	;# 
  1229  021B                     	;# 
  1230  021C                     	;# 
  1231  021D                     	;# 
  1232  021D                     	;# 
  1233  021E                     	;# 
  1234  021F                     	;# 
  1235  028C                     	;# 
  1236  028D                     	;# 
  1237  028E                     	;# 
  1238  0291                     	;# 
  1239  0291                     	;# 
  1240  0292                     	;# 
  1241  0293                     	;# 
  1242  0294                     	;# 
  1243  0295                     	;# 
  1244  0295                     	;# 
  1245  0296                     	;# 
  1246  0297                     	;# 
  1247  0298                     	;# 
  1248  029F                     	;# 
  1249  030C                     	;# 
  1250  030D                     	;# 
  1251  030E                     	;# 
  1252  0311                     	;# 
  1253  0311                     	;# 
  1254  0312                     	;# 
  1255  0313                     	;# 
  1256  0314                     	;# 
  1257  0315                     	;# 
  1258  0315                     	;# 
  1259  0316                     	;# 
  1260  0317                     	;# 
  1261  0318                     	;# 
  1262  038C                     	;# 
  1263  038D                     	;# 
  1264  038E                     	;# 
  1265  0391                     	;# 
  1266  0392                     	;# 
  1267  0393                     	;# 
  1268  0394                     	;# 
  1269  0395                     	;# 
  1270  0396                     	;# 
  1271  0397                     	;# 
  1272  0398                     	;# 
  1273  0399                     	;# 
  1274  039A                     	;# 
  1275  039C                     	;# 
  1276  039D                     	;# 
  1277  039E                     	;# 
  1278  039F                     	;# 
  1279  0411                     	;# 
  1280  0411                     	;# 
  1281  0412                     	;# 
  1282  0413                     	;# 
  1283  0414                     	;# 
  1284  0415                     	;# 
  1285  0416                     	;# 
  1286  0417                     	;# 
  1287  0418                     	;# 
  1288  0418                     	;# 
  1289  0419                     	;# 
  1290  041A                     	;# 
  1291  041B                     	;# 
  1292  041C                     	;# 
  1293  041D                     	;# 
  1294  041E                     	;# 
  1295  041F                     	;# 
  1296  0498                     	;# 
  1297  0498                     	;# 
  1298  0499                     	;# 
  1299  049A                     	;# 
  1300  049B                     	;# 
  1301  049B                     	;# 
  1302  049C                     	;# 
  1303  049D                     	;# 
  1304  049E                     	;# 
  1305  049F                     	;# 
  1306  0617                     	;# 
  1307  0618                     	;# 
  1308  0619                     	;# 
  1309  0619                     	;# 
  1310  061A                     	;# 
  1311  061B                     	;# 
  1312  061C                     	;# 
  1313  061C                     	;# 
  1314  061F                     	;# 
  1315  0691                     	;# 
  1316  0692                     	;# 
  1317  0693                     	;# 
  1318  0694                     	;# 
  1319  0695                     	;# 
  1320  0696                     	;# 
  1321  0697                     	;# 
  1322  0698                     	;# 
  1323  0699                     	;# 
  1324  0711                     	;# 
  1325  0712                     	;# 
  1326  0713                     	;# 
  1327  0714                     	;# 
  1328  0715                     	;# 
  1329  0716                     	;# 
  1330  0717                     	;# 
  1331  0718                     	;# 
  1332  0719                     	;# 
  1333  0891                     	;# 
  1334  0891                     	;# 
  1335  0891                     	;# 
  1336  0891                     	;# 
  1337  0891                     	;# 
  1338  0891                     	;# 
  1339  0892                     	;# 
  1340  0892                     	;# 
  1341  0892                     	;# 
  1342  0893                     	;# 
  1343  0893                     	;# 
  1344  0893                     	;# 
  1345  0893                     	;# 
  1346  0893                     	;# 
  1347  0893                     	;# 
  1348  0894                     	;# 
  1349  0894                     	;# 
  1350  0894                     	;# 
  1351  0895                     	;# 
  1352  0895                     	;# 
  1353  0895                     	;# 
  1354  0896                     	;# 
  1355  0896                     	;# 
  1356  0896                     	;# 
  1357  089B                     	;# 
  1358  0911                     	;# 
  1359  0912                     	;# 
  1360  0913                     	;# 
  1361  0914                     	;# 
  1362  0915                     	;# 
  1363  0916                     	;# 
  1364  0918                     	;# 
  1365  0919                     	;# 
  1366  091A                     	;# 
  1367  091B                     	;# 
  1368  091C                     	;# 
  1369  091D                     	;# 
  1370  091E                     	;# 
  1371  091F                     	;# 
  1372  0E0F                     	;# 
  1373  0E10                     	;# 
  1374  0E11                     	;# 
  1375  0E12                     	;# 
  1376  0E13                     	;# 
  1377  0E14                     	;# 
  1378  0E15                     	;# 
  1379  0E16                     	;# 
  1380  0E17                     	;# 
  1381  0E18                     	;# 
  1382  0E19                     	;# 
  1383  0E1A                     	;# 
  1384  0E1B                     	;# 
  1385  0E1C                     	;# 
  1386  0E1D                     	;# 
  1387  0E1E                     	;# 
  1388  0E1F                     	;# 
  1389  0E20                     	;# 
  1390  0E21                     	;# 
  1391  0E22                     	;# 
  1392  0E24                     	;# 
  1393  0E25                     	;# 
  1394  0E28                     	;# 
  1395  0E29                     	;# 
  1396  0E2A                     	;# 
  1397  0E2B                     	;# 
  1398  0E2C                     	;# 
  1399  0E2D                     	;# 
  1400  0E2E                     	;# 
  1401  0E2F                     	;# 
  1402  0E90                     	;# 
  1403  0E91                     	;# 
  1404  0E92                     	;# 
  1405  0E94                     	;# 
  1406  0E95                     	;# 
  1407  0E9C                     	;# 
  1408  0E9D                     	;# 
  1409  0E9E                     	;# 
  1410  0E9F                     	;# 
  1411  0EA0                     	;# 
  1412  0EA1                     	;# 
  1413  0EA2                     	;# 
  1414  0EA3                     	;# 
  1415  0EA4                     	;# 
  1416  0EA5                     	;# 
  1417  0EA6                     	;# 
  1418  0EA7                     	;# 
  1419  0F0F                     	;# 
  1420  0F10                     	;# 
  1421  0F11                     	;# 
  1422  0F12                     	;# 
  1423  0F13                     	;# 
  1424  0F14                     	;# 
  1425  0F15                     	;# 
  1426  0F16                     	;# 
  1427  0F17                     	;# 
  1428  0F18                     	;# 
  1429  0F19                     	;# 
  1430  0F1A                     	;# 
  1431  0F1B                     	;# 
  1432  0F1C                     	;# 
  1433  0F1D                     	;# 
  1434  0F1E                     	;# 
  1435  0F1F                     	;# 
  1436  0F20                     	;# 
  1437  0F21                     	;# 
  1438  0F22                     	;# 
  1439  0F23                     	;# 
  1440  0F24                     	;# 
  1441  0F25                     	;# 
  1442  0F26                     	;# 
  1443  0F27                     	;# 
  1444  0F28                     	;# 
  1445  0F29                     	;# 
  1446  0F2A                     	;# 
  1447  0F2B                     	;# 
  1448  0F2C                     	;# 
  1449  0F2D                     	;# 
  1450  0F2E                     	;# 
  1451  0F2F                     	;# 
  1452  0F30                     	;# 
  1453  0F31                     	;# 
  1454  0F32                     	;# 
  1455  0F33                     	;# 
  1456  0F34                     	;# 
  1457  0F35                     	;# 
  1458  0F36                     	;# 
  1459  0F37                     	;# 
  1460  0FE4                     	;# 
  1461  0FE5                     	;# 
  1462  0FE6                     	;# 
  1463  0FE7                     	;# 
  1464  0FE8                     	;# 
  1465  0FE9                     	;# 
  1466  0FEA                     	;# 
  1467  0FEB                     	;# 
  1468  0FED                     	;# 
  1469  0FEE                     	;# 
  1470  0FEF                     	;# 
  1471  0000                     	;# 
  1472  0001                     	;# 
  1473  0002                     	;# 
  1474  0003                     	;# 
  1475  0004                     	;# 
  1476  0005                     	;# 
  1477  0006                     	;# 
  1478  0007                     	;# 
  1479  0008                     	;# 
  1480  0009                     	;# 
  1481  000A                     	;# 
  1482  000B                     	;# 
  1483  000C                     	;# 
  1484  000D                     	;# 
  1485  000E                     	;# 
  1486  0010                     	;# 
  1487  0011                     	;# 
  1488  0012                     	;# 
  1489  0013                     	;# 
  1490  0014                     	;# 
  1491  0015                     	;# 
  1492  0015                     	;# 
  1493  0016                     	;# 
  1494  0016                     	;# 
  1495  0017                     	;# 
  1496  0018                     	;# 
  1497  0019                     	;# 
  1498  0019                     	;# 
  1499  001A                     	;# 
  1500  001B                     	;# 
  1501  001C                     	;# 
  1502  001D                     	;# 
  1503  001E                     	;# 
  1504  001F                     	;# 
  1505  008C                     	;# 
  1506  008D                     	;# 
  1507  008E                     	;# 
  1508  0090                     	;# 
  1509  0091                     	;# 
  1510  0092                     	;# 
  1511  0093                     	;# 
  1512  0094                     	;# 
  1513  0097                     	;# 
  1514  009B                     	;# 
  1515  009B                     	;# 
  1516  009C                     	;# 
  1517  009D                     	;# 
  1518  009E                     	;# 
  1519  009F                     	;# 
  1520  010C                     	;# 
  1521  010D                     	;# 
  1522  010E                     	;# 
  1523  0111                     	;# 
  1524  0112                     	;# 
  1525  0113                     	;# 
  1526  0114                     	;# 
  1527  0115                     	;# 
  1528  0116                     	;# 
  1529  0117                     	;# 
  1530  0118                     	;# 
  1531  0119                     	;# 
  1532  018C                     	;# 
  1533  018D                     	;# 
  1534  018E                     	;# 
  1535  0197                     	;# 
  1536  0199                     	;# 
  1537  0199                     	;# 
  1538  0199                     	;# 
  1539  019A                     	;# 
  1540  019A                     	;# 
  1541  019A                     	;# 
  1542  019B                     	;# 
  1543  019B                     	;# 
  1544  019B                     	;# 
  1545  019B                     	;# 
  1546  019B                     	;# 
  1547  019C                     	;# 
  1548  019C                     	;# 
  1549  019C                     	;# 
  1550  019D                     	;# 
  1551  019D                     	;# 
  1552  019D                     	;# 
  1553  019E                     	;# 
  1554  019E                     	;# 
  1555  019E                     	;# 
  1556  019F                     	;# 
  1557  019F                     	;# 
  1558  019F                     	;# 
  1559  019F                     	;# 
  1560  019F                     	;# 
  1561  020C                     	;# 
  1562  020D                     	;# 
  1563  020E                     	;# 
  1564  0211                     	;# 
  1565  0211                     	;# 
  1566  0212                     	;# 
  1567  0212                     	;# 
  1568  0213                     	;# 
  1569  0213                     	;# 
  1570  0214                     	;# 
  1571  0214                     	;# 
  1572  0215                     	;# 
  1573  0215                     	;# 
  1574  0215                     	;# 
  1575  0215                     	;# 
  1576  0216                     	;# 
  1577  0216                     	;# 
  1578  0217                     	;# 
  1579  0217                     	;# 
  1580  0219                     	;# 
  1581  021A                     	;# 
  1582  021B                     	;# 
  1583  021C                     	;# 
  1584  021D                     	;# 
  1585  021D                     	;# 
  1586  021E                     	;# 
  1587  021F                     	;# 
  1588  028C                     	;# 
  1589  028D                     	;# 
  1590  028E                     	;# 
  1591  0291                     	;# 
  1592  0291                     	;# 
  1593  0292                     	;# 
  1594  0293                     	;# 
  1595  0294                     	;# 
  1596  0295                     	;# 
  1597  0295                     	;# 
  1598  0296                     	;# 
  1599  0297                     	;# 
  1600  0298                     	;# 
  1601  029F                     	;# 
  1602  030C                     	;# 
  1603  030D                     	;# 
  1604  030E                     	;# 
  1605  0311                     	;# 
  1606  0311                     	;# 
  1607  0312                     	;# 
  1608  0313                     	;# 
  1609  0314                     	;# 
  1610  0315                     	;# 
  1611  0315                     	;# 
  1612  0316                     	;# 
  1613  0317                     	;# 
  1614  0318                     	;# 
  1615  038C                     	;# 
  1616  038D                     	;# 
  1617  038E                     	;# 
  1618  0391                     	;# 
  1619  0392                     	;# 
  1620  0393                     	;# 
  1621  0394                     	;# 
  1622  0395                     	;# 
  1623  0396                     	;# 
  1624  0397                     	;# 
  1625  0398                     	;# 
  1626  0399                     	;# 
  1627  039A                     	;# 
  1628  039C                     	;# 
  1629  039D                     	;# 
  1630  039E                     	;# 
  1631  039F                     	;# 
  1632  0411                     	;# 
  1633  0411                     	;# 
  1634  0412                     	;# 
  1635  0413                     	;# 
  1636  0414                     	;# 
  1637  0415                     	;# 
  1638  0416                     	;# 
  1639  0417                     	;# 
  1640  0418                     	;# 
  1641  0418                     	;# 
  1642  0419                     	;# 
  1643  041A                     	;# 
  1644  041B                     	;# 
  1645  041C                     	;# 
  1646  041D                     	;# 
  1647  041E                     	;# 
  1648  041F                     	;# 
  1649  0498                     	;# 
  1650  0498                     	;# 
  1651  0499                     	;# 
  1652  049A                     	;# 
  1653  049B                     	;# 
  1654  049B                     	;# 
  1655  049C                     	;# 
  1656  049D                     	;# 
  1657  049E                     	;# 
  1658  049F                     	;# 
  1659  0617                     	;# 
  1660  0618                     	;# 
  1661  0619                     	;# 
  1662  0619                     	;# 
  1663  061A                     	;# 
  1664  061B                     	;# 
  1665  061C                     	;# 
  1666  061C                     	;# 
  1667  061F                     	;# 
  1668  0691                     	;# 
  1669  0692                     	;# 
  1670  0693                     	;# 
  1671  0694                     	;# 
  1672  0695                     	;# 
  1673  0696                     	;# 
  1674  0697                     	;# 
  1675  0698                     	;# 
  1676  0699                     	;# 
  1677  0711                     	;# 
  1678  0712                     	;# 
  1679  0713                     	;# 
  1680  0714                     	;# 
  1681  0715                     	;# 
  1682  0716                     	;# 
  1683  0717                     	;# 
  1684  0718                     	;# 
  1685  0719                     	;# 
  1686  0891                     	;# 
  1687  0891                     	;# 
  1688  0891                     	;# 
  1689  0891                     	;# 
  1690  0891                     	;# 
  1691  0891                     	;# 
  1692  0892                     	;# 
  1693  0892                     	;# 
  1694  0892                     	;# 
  1695  0893                     	;# 
  1696  0893                     	;# 
  1697  0893                     	;# 
  1698  0893                     	;# 
  1699  0893                     	;# 
  1700  0893                     	;# 
  1701  0894                     	;# 
  1702  0894                     	;# 
  1703  0894                     	;# 
  1704  0895                     	;# 
  1705  0895                     	;# 
  1706  0895                     	;# 
  1707  0896                     	;# 
  1708  0896                     	;# 
  1709  0896                     	;# 
  1710  089B                     	;# 
  1711  0911                     	;# 
  1712  0912                     	;# 
  1713  0913                     	;# 
  1714  0914                     	;# 
  1715  0915                     	;# 
  1716  0916                     	;# 
  1717  0918                     	;# 
  1718  0919                     	;# 
  1719  091A                     	;# 
  1720  091B                     	;# 
  1721  091C                     	;# 
  1722  091D                     	;# 
  1723  091E                     	;# 
  1724  091F                     	;# 
  1725  0E0F                     	;# 
  1726  0E10                     	;# 
  1727  0E11                     	;# 
  1728  0E12                     	;# 
  1729  0E13                     	;# 
  1730  0E14                     	;# 
  1731  0E15                     	;# 
  1732  0E16                     	;# 
  1733  0E17                     	;# 
  1734  0E18                     	;# 
  1735  0E19                     	;# 
  1736  0E1A                     	;# 
  1737  0E1B                     	;# 
  1738  0E1C                     	;# 
  1739  0E1D                     	;# 
  1740  0E1E                     	;# 
  1741  0E1F                     	;# 
  1742  0E20                     	;# 
  1743  0E21                     	;# 
  1744  0E22                     	;# 
  1745  0E24                     	;# 
  1746  0E25                     	;# 
  1747  0E28                     	;# 
  1748  0E29                     	;# 
  1749  0E2A                     	;# 
  1750  0E2B                     	;# 
  1751  0E2C                     	;# 
  1752  0E2D                     	;# 
  1753  0E2E                     	;# 
  1754  0E2F                     	;# 
  1755  0E90                     	;# 
  1756  0E91                     	;# 
  1757  0E92                     	;# 
  1758  0E94                     	;# 
  1759  0E95                     	;# 
  1760  0E9C                     	;# 
  1761  0E9D                     	;# 
  1762  0E9E                     	;# 
  1763  0E9F                     	;# 
  1764  0EA0                     	;# 
  1765  0EA1                     	;# 
  1766  0EA2                     	;# 
  1767  0EA3                     	;# 
  1768  0EA4                     	;# 
  1769  0EA5                     	;# 
  1770  0EA6                     	;# 
  1771  0EA7                     	;# 
  1772  0F0F                     	;# 
  1773  0F10                     	;# 
  1774  0F11                     	;# 
  1775  0F12                     	;# 
  1776  0F13                     	;# 
  1777  0F14                     	;# 
  1778  0F15                     	;# 
  1779  0F16                     	;# 
  1780  0F17                     	;# 
  1781  0F18                     	;# 
  1782  0F19                     	;# 
  1783  0F1A                     	;# 
  1784  0F1B                     	;# 
  1785  0F1C                     	;# 
  1786  0F1D                     	;# 
  1787  0F1E                     	;# 
  1788  0F1F                     	;# 
  1789  0F20                     	;# 
  1790  0F21                     	;# 
  1791  0F22                     	;# 
  1792  0F23                     	;# 
  1793  0F24                     	;# 
  1794  0F25                     	;# 
  1795  0F26                     	;# 
  1796  0F27                     	;# 
  1797  0F28                     	;# 
  1798  0F29                     	;# 
  1799  0F2A                     	;# 
  1800  0F2B                     	;# 
  1801  0F2C                     	;# 
  1802  0F2D                     	;# 
  1803  0F2E                     	;# 
  1804  0F2F                     	;# 
  1805  0F30                     	;# 
  1806  0F31                     	;# 
  1807  0F32                     	;# 
  1808  0F33                     	;# 
  1809  0F34                     	;# 
  1810  0F35                     	;# 
  1811  0F36                     	;# 
  1812  0F37                     	;# 
  1813  0FE4                     	;# 
  1814  0FE5                     	;# 
  1815  0FE6                     	;# 
  1816  0FE7                     	;# 
  1817  0FE8                     	;# 
  1818  0FE9                     	;# 
  1819  0FEA                     	;# 
  1820  0FEB                     	;# 
  1821  0FED                     	;# 
  1822  0FEE                     	;# 
  1823  0FEF                     	;# 
  1824  0000                     	;# 
  1825  0001                     	;# 
  1826  0002                     	;# 
  1827  0003                     	;# 
  1828  0004                     	;# 
  1829  0005                     	;# 
  1830  0006                     	;# 
  1831  0007                     	;# 
  1832  0008                     	;# 
  1833  0009                     	;# 
  1834  000A                     	;# 
  1835  000B                     	;# 
  1836  000C                     	;# 
  1837  000D                     	;# 
  1838  000E                     	;# 
  1839  0010                     	;# 
  1840  0011                     	;# 
  1841  0012                     	;# 
  1842  0013                     	;# 
  1843  0014                     	;# 
  1844  0015                     	;# 
  1845  0015                     	;# 
  1846  0016                     	;# 
  1847  0016                     	;# 
  1848  0017                     	;# 
  1849  0018                     	;# 
  1850  0019                     	;# 
  1851  0019                     	;# 
  1852  001A                     	;# 
  1853  001B                     	;# 
  1854  001C                     	;# 
  1855  001D                     	;# 
  1856  001E                     	;# 
  1857  001F                     	;# 
  1858  008C                     	;# 
  1859  008D                     	;# 
  1860  008E                     	;# 
  1861  0090                     	;# 
  1862  0091                     	;# 
  1863  0092                     	;# 
  1864  0093                     	;# 
  1865  0094                     	;# 
  1866  0097                     	;# 
  1867  009B                     	;# 
  1868  009B                     	;# 
  1869  009C                     	;# 
  1870  009D                     	;# 
  1871  009E                     	;# 
  1872  009F                     	;# 
  1873  010C                     	;# 
  1874  010D                     	;# 
  1875  010E                     	;# 
  1876  0111                     	;# 
  1877  0112                     	;# 
  1878  0113                     	;# 
  1879  0114                     	;# 
  1880  0115                     	;# 
  1881  0116                     	;# 
  1882  0117                     	;# 
  1883  0118                     	;# 
  1884  0119                     	;# 
  1885  018C                     	;# 
  1886  018D                     	;# 
  1887  018E                     	;# 
  1888  0197                     	;# 
  1889  0199                     	;# 
  1890  0199                     	;# 
  1891  0199                     	;# 
  1892  019A                     	;# 
  1893  019A                     	;# 
  1894  019A                     	;# 
  1895  019B                     	;# 
  1896  019B                     	;# 
  1897  019B                     	;# 
  1898  019B                     	;# 
  1899  019B                     	;# 
  1900  019C                     	;# 
  1901  019C                     	;# 
  1902  019C                     	;# 
  1903  019D                     	;# 
  1904  019D                     	;# 
  1905  019D                     	;# 
  1906  019E                     	;# 
  1907  019E                     	;# 
  1908  019E                     	;# 
  1909  019F                     	;# 
  1910  019F                     	;# 
  1911  019F                     	;# 
  1912  019F                     	;# 
  1913  019F                     	;# 
  1914  020C                     	;# 
  1915  020D                     	;# 
  1916  020E                     	;# 
  1917  0211                     	;# 
  1918  0211                     	;# 
  1919  0212                     	;# 
  1920  0212                     	;# 
  1921  0213                     	;# 
  1922  0213                     	;# 
  1923  0214                     	;# 
  1924  0214                     	;# 
  1925  0215                     	;# 
  1926  0215                     	;# 
  1927  0215                     	;# 
  1928  0215                     	;# 
  1929  0216                     	;# 
  1930  0216                     	;# 
  1931  0217                     	;# 
  1932  0217                     	;# 
  1933  0219                     	;# 
  1934  021A                     	;# 
  1935  021B                     	;# 
  1936  021C                     	;# 
  1937  021D                     	;# 
  1938  021D                     	;# 
  1939  021E                     	;# 
  1940  021F                     	;# 
  1941  028C                     	;# 
  1942  028D                     	;# 
  1943  028E                     	;# 
  1944  0291                     	;# 
  1945  0291                     	;# 
  1946  0292                     	;# 
  1947  0293                     	;# 
  1948  0294                     	;# 
  1949  0295                     	;# 
  1950  0295                     	;# 
  1951  0296                     	;# 
  1952  0297                     	;# 
  1953  0298                     	;# 
  1954  029F                     	;# 
  1955  030C                     	;# 
  1956  030D                     	;# 
  1957  030E                     	;# 
  1958  0311                     	;# 
  1959  0311                     	;# 
  1960  0312                     	;# 
  1961  0313                     	;# 
  1962  0314                     	;# 
  1963  0315                     	;# 
  1964  0315                     	;# 
  1965  0316                     	;# 
  1966  0317                     	;# 
  1967  0318                     	;# 
  1968  038C                     	;# 
  1969  038D                     	;# 
  1970  038E                     	;# 
  1971  0391                     	;# 
  1972  0392                     	;# 
  1973  0393                     	;# 
  1974  0394                     	;# 
  1975  0395                     	;# 
  1976  0396                     	;# 
  1977  0397                     	;# 
  1978  0398                     	;# 
  1979  0399                     	;# 
  1980  039A                     	;# 
  1981  039C                     	;# 
  1982  039D                     	;# 
  1983  039E                     	;# 
  1984  039F                     	;# 
  1985  0411                     	;# 
  1986  0411                     	;# 
  1987  0412                     	;# 
  1988  0413                     	;# 
  1989  0414                     	;# 
  1990  0415                     	;# 
  1991  0416                     	;# 
  1992  0417                     	;# 
  1993  0418                     	;# 
  1994  0418                     	;# 
  1995  0419                     	;# 
  1996  041A                     	;# 
  1997  041B                     	;# 
  1998  041C                     	;# 
  1999  041D                     	;# 
  2000  041E                     	;# 
  2001  041F                     	;# 
  2002  0498                     	;# 
  2003  0498                     	;# 
  2004  0499                     	;# 
  2005  049A                     	;# 
  2006  049B                     	;# 
  2007  049B                     	;# 
  2008  049C                     	;# 
  2009  049D                     	;# 
  2010  049E                     	;# 
  2011  049F                     	;# 
  2012  0617                     	;# 
  2013  0618                     	;# 
  2014  0619                     	;# 
  2015  0619                     	;# 
  2016  061A                     	;# 
  2017  061B                     	;# 
  2018  061C                     	;# 
  2019  061C                     	;# 
  2020  061F                     	;# 
  2021  0691                     	;# 
  2022  0692                     	;# 
  2023  0693                     	;# 
  2024  0694                     	;# 
  2025  0695                     	;# 
  2026  0696                     	;# 
  2027  0697                     	;# 
  2028  0698                     	;# 
  2029  0699                     	;# 
  2030  0711                     	;# 
  2031  0712                     	;# 
  2032  0713                     	;# 
  2033  0714                     	;# 
  2034  0715                     	;# 
  2035  0716                     	;# 
  2036  0717                     	;# 
  2037  0718                     	;# 
  2038  0719                     	;# 
  2039  0891                     	;# 
  2040  0891                     	;# 
  2041  0891                     	;# 
  2042  0891                     	;# 
  2043  0891                     	;# 
  2044  0891                     	;# 
  2045  0892                     	;# 
  2046  0892                     	;# 
  2047  0892                     	;# 
  2048  0893                     	;# 
  2049  0893                     	;# 
  2050  0893                     	;# 
  2051  0893                     	;# 
  2052  0893                     	;# 
  2053  0893                     	;# 
  2054  0894                     	;# 
  2055  0894                     	;# 
  2056  0894                     	;# 
  2057  0895                     	;# 
  2058  0895                     	;# 
  2059  0895                     	;# 
  2060  0896                     	;# 
  2061  0896                     	;# 
  2062  0896                     	;# 
  2063  089B                     	;# 
  2064  0911                     	;# 
  2065  0912                     	;# 
  2066  0913                     	;# 
  2067  0914                     	;# 
  2068  0915                     	;# 
  2069  0916                     	;# 
  2070  0918                     	;# 
  2071  0919                     	;# 
  2072  091A                     	;# 
  2073  091B                     	;# 
  2074  091C                     	;# 
  2075  091D                     	;# 
  2076  091E                     	;# 
  2077  091F                     	;# 
  2078  0E0F                     	;# 
  2079  0E10                     	;# 
  2080  0E11                     	;# 
  2081  0E12                     	;# 
  2082  0E13                     	;# 
  2083  0E14                     	;# 
  2084  0E15                     	;# 
  2085  0E16                     	;# 
  2086  0E17                     	;# 
  2087  0E18                     	;# 
  2088  0E19                     	;# 
  2089  0E1A                     	;# 
  2090  0E1B                     	;# 
  2091  0E1C                     	;# 
  2092  0E1D                     	;# 
  2093  0E1E                     	;# 
  2094  0E1F                     	;# 
  2095  0E20                     	;# 
  2096  0E21                     	;# 
  2097  0E22                     	;# 
  2098  0E24                     	;# 
  2099  0E25                     	;# 
  2100  0E28                     	;# 
  2101  0E29                     	;# 
  2102  0E2A                     	;# 
  2103  0E2B                     	;# 
  2104  0E2C                     	;# 
  2105  0E2D                     	;# 
  2106  0E2E                     	;# 
  2107  0E2F                     	;# 
  2108  0E90                     	;# 
  2109  0E91                     	;# 
  2110  0E92                     	;# 
  2111  0E94                     	;# 
  2112  0E95                     	;# 
  2113  0E9C                     	;# 
  2114  0E9D                     	;# 
  2115  0E9E                     	;# 
  2116  0E9F                     	;# 
  2117  0EA0                     	;# 
  2118  0EA1                     	;# 
  2119  0EA2                     	;# 
  2120  0EA3                     	;# 
  2121  0EA4                     	;# 
  2122  0EA5                     	;# 
  2123  0EA6                     	;# 
  2124  0EA7                     	;# 
  2125  0F0F                     	;# 
  2126  0F10                     	;# 
  2127  0F11                     	;# 
  2128  0F12                     	;# 
  2129  0F13                     	;# 
  2130  0F14                     	;# 
  2131  0F15                     	;# 
  2132  0F16                     	;# 
  2133  0F17                     	;# 
  2134  0F18                     	;# 
  2135  0F19                     	;# 
  2136  0F1A                     	;# 
  2137  0F1B                     	;# 
  2138  0F1C                     	;# 
  2139  0F1D                     	;# 
  2140  0F1E                     	;# 
  2141  0F1F                     	;# 
  2142  0F20                     	;# 
  2143  0F21                     	;# 
  2144  0F22                     	;# 
  2145  0F23                     	;# 
  2146  0F24                     	;# 
  2147  0F25                     	;# 
  2148  0F26                     	;# 
  2149  0F27                     	;# 
  2150  0F28                     	;# 
  2151  0F29                     	;# 
  2152  0F2A                     	;# 
  2153  0F2B                     	;# 
  2154  0F2C                     	;# 
  2155  0F2D                     	;# 
  2156  0F2E                     	;# 
  2157  0F2F                     	;# 
  2158  0F30                     	;# 
  2159  0F31                     	;# 
  2160  0F32                     	;# 
  2161  0F33                     	;# 
  2162  0F34                     	;# 
  2163  0F35                     	;# 
  2164  0F36                     	;# 
  2165  0F37                     	;# 
  2166  0FE4                     	;# 
  2167  0FE5                     	;# 
  2168  0FE6                     	;# 
  2169  0FE7                     	;# 
  2170  0FE8                     	;# 
  2171  0FE9                     	;# 
  2172  0FEA                     	;# 
  2173  0FEB                     	;# 
  2174  0FED                     	;# 
  2175  0FEE                     	;# 
  2176  0FEF                     	;# 
  2177                           
  2178                           	psect	nvCOMMON
  2179  007A                     __pnvCOMMON:	
  2180  007A                     _TMR0_InterruptHandler:	
  2181  007A                     	ds	2
  2182  000B                     _INTCONbits	set	11
  2183  000E                     _PORTCbits	set	14
  2184  0017                     _T0CON0bits	set	23
  2185  0015                     _TMR0L	set	21
  2186  0016                     _TMR0H	set	22
  2187  0018                     _T0CON1	set	24
  2188  0017                     _T0CON0	set	23
  2189  0010                     _PIR0bits	set	16
  2190  0090                     _PIE0bits	set	144
  2191  008E                     _TRISC	set	142
  2192  008D                     _TRISB	set	141
  2193  008C                     _TRISA	set	140
  2194  0097                     _WDTCON	set	151
  2195  010C                     _LATAbits	set	268
  2196  010E                     _LATC	set	270
  2197  010D                     _LATB	set	269
  2198  010C                     _LATA	set	268
  2199  018C                     _ANSELA	set	396
  2200  018D                     _ANSELB	set	397
  2201  018E                     _ANSELC	set	398
  2202  020E                     _WPUC	set	526
  2203  020C                     _WPUA	set	524
  2204  020D                     _WPUB	set	525
  2205  028E                     _ODCONC	set	654
  2206  028D                     _ODCONB	set	653
  2207  028C                     _ODCONA	set	652
  2208  091E                     _OSCTUNE	set	2334
  2209  091F                     _OSCFRQ	set	2335
  2210  091D                     _OSCEN	set	2333
  2211  091B                     _OSCCON3	set	2331
  2212  0919                     _OSCCON1	set	2329
  2213                           
  2214                           ; #config settings
  2215  0000                     
  2216                           	psect	cinit
  2217  0018                     start_initialization:	
  2218  0018                     __initialization:	
  2219                           
  2220                           ; Clear objects allocated to BANK0
  2221  0018  0020               	movlb	0	; select bank0
  2222  0019  01A0               	clrf	__pbssBANK0& (0+127)
  2223  001A  01A1               	clrf	(__pbssBANK0+1)& (0+127)
  2224  001B  01A2               	clrf	(__pbssBANK0+2)& (0+127)
  2225  001C  01A3               	clrf	(__pbssBANK0+3)& (0+127)
  2226  001D  01A4               	clrf	(__pbssBANK0+4)& (0+127)
  2227  001E  01A5               	clrf	(__pbssBANK0+5)& (0+127)
  2228  001F  01A6               	clrf	(__pbssBANK0+6)& (0+127)
  2229  0020  01A7               	clrf	(__pbssBANK0+7)& (0+127)
  2230  0021  01A8               	clrf	(__pbssBANK0+8)& (0+127)
  2231  0022  01A9               	clrf	(__pbssBANK0+9)& (0+127)
  2232  0023                     end_of_initialization:	
  2233                           ;End of C runtime variable initialization code
  2234                           
  2235  0023                     __end_of__initialization:	
  2236  0023  107E               	bcf	int$flags,0	;clear compiler interrupt flag (level 1)
  2237  0024  0020               	movlb	0
  2238  0025  3180  28BD         	ljmp	_main	;jump to C main() function
  2239                           
  2240                           	psect	bssBANK0
  2241  0020                     __pbssBANK0:	
  2242  0020                     _debo:	
  2243  0020                     	ds	10
  2244                           
  2245                           	psect	cstackCOMMON
  2246  0070                     __pcstackCOMMON:	
  2247  0070                     ?_PIN_MANAGER_Initialize:	
  2248  0070                     ?_OSCILLATOR_Initialize:	
  2249                           ; 1 bytes @ 0x0
  2250                           
  2251  0070                     ?_WDT_Initialize:	
  2252                           ; 1 bytes @ 0x0
  2253                           
  2254  0070                     ?_TMR0_Initialize:	
  2255                           ; 1 bytes @ 0x0
  2256                           
  2257  0070                     ?_TMR0_ISR:	
  2258                           ; 1 bytes @ 0x0
  2259                           
  2260  0070                     ?_TMR0_DefaultInterruptHandler:	
  2261                           ; 1 bytes @ 0x0
  2262                           
  2263  0070                     ??_TMR0_DefaultInterruptHandler:	
  2264                           ; 1 bytes @ 0x0
  2265                           
  2266  0070                     ?_TMR0_StartTimer:	
  2267                           ; 1 bytes @ 0x0
  2268                           
  2269  0070                     ?_TMR0_CallBack:	
  2270                           ; 1 bytes @ 0x0
  2271                           
  2272  0070                     ?_debounce:	
  2273                           ; 1 bytes @ 0x0
  2274                           
  2275  0070                     ?_SYSTEM_Initialize:	
  2276                           ; 1 bytes @ 0x0
  2277                           
  2278  0070                     ?_INTERRUPT_InterruptManager:	
  2279                           ; 1 bytes @ 0x0
  2280                           
  2281  0070                     ?_main:	
  2282                           ; 1 bytes @ 0x0
  2283                           
  2284  0070                     ?_button:	
  2285                           ; 1 bytes @ 0x0
  2286                           
  2287                           
  2288                           ; 2 bytes @ 0x0
  2289  0070                     	ds	2
  2290  0072                     ??_button:	
  2291                           
  2292                           ; 1 bytes @ 0x2
  2293  0072                     	ds	2
  2294  0074                     ??_debounce:	
  2295                           
  2296                           ; 1 bytes @ 0x4
  2297  0074                     	ds	4
  2298  0078                     debounce@debouncer:	
  2299                           
  2300                           ; 1 bytes @ 0x8
  2301  0078                     	ds	1
  2302  0079                     ??_TMR0_ISR:	
  2303  0079                     ??_TMR0_CallBack:	
  2304                           ; 1 bytes @ 0x9
  2305                           
  2306  0079                     ??_INTERRUPT_InterruptManager:	
  2307                           ; 1 bytes @ 0x9
  2308                           
  2309                           
  2310                           ; 1 bytes @ 0x9
  2311  0079                     	ds	1
  2312                           
  2313                           	psect	cstackBANK0
  2314  002A                     __pcstackBANK0:	
  2315  002A                     ??_PIN_MANAGER_Initialize:	
  2316  002A                     ??_OSCILLATOR_Initialize:	
  2317                           ; 1 bytes @ 0x0
  2318                           
  2319  002A                     ??_WDT_Initialize:	
  2320                           ; 1 bytes @ 0x0
  2321                           
  2322  002A                     ?_TMR0_SetInterruptHandler:	
  2323                           ; 1 bytes @ 0x0
  2324                           
  2325  002A                     ??_TMR0_StartTimer:	
  2326                           ; 1 bytes @ 0x0
  2327                           
  2328  002A                     TMR0_SetInterruptHandler@InterruptHandler:	
  2329                           ; 1 bytes @ 0x0
  2330                           
  2331                           
  2332                           ; 2 bytes @ 0x0
  2333  002A                     	ds	2
  2334  002C                     ??_TMR0_Initialize:	
  2335  002C                     ??_TMR0_SetInterruptHandler:	
  2336                           ; 1 bytes @ 0x2
  2337                           
  2338  002C                     ??_SYSTEM_Initialize:	
  2339                           ; 1 bytes @ 0x2
  2340                           
  2341  002C                     ??_main:	
  2342                           ; 1 bytes @ 0x2
  2343                           
  2344                           
  2345                           	psect	maintext
  2346  00BD                     __pmaintext:	
  2347                           ; 1 bytes @ 0x2
  2348 ;;
  2349 ;;Main: autosize = 0, tempsize = 0, incstack = 0, save=0
  2350 ;;
  2351 ;; *************** function _main *****************
  2352 ;; Defined at:
  2353 ;;		line 23 in file "main.c"
  2354 ;; Parameters:    Size  Location     Type
  2355 ;;		None
  2356 ;; Auto vars:     Size  Location     Type
  2357 ;;		None
  2358 ;; Return value:  Size  Location     Type
  2359 ;;                  1    wreg      void 
  2360 ;; Registers used:
  2361 ;;		wreg, status,2, status,0, pclath, cstack
  2362 ;; Tracked objects:
  2363 ;;		On entry : B1F/0
  2364 ;;		On exit  : 0/0
  2365 ;;		Unchanged: 0/0
  2366 ;; Data sizes:     COMMON   BANK0   BANK1   BANK2   BANK3   BANK4   BANK5   BANK6   BANK7   BANK8   BANK9  BANK10  BANK1
      +1  BANK12
  2367 ;;      Params:         0       0       0       0       0       0       0       0       0       0       0       0       
      +0       0
  2368 ;;      Locals:         0       0       0       0       0       0       0       0       0       0       0       0       
      +0       0
  2369 ;;      Temps:          0       0       0       0       0       0       0       0       0       0       0       0       
      +0       0
  2370 ;;      Totals:         0       0       0       0       0       0       0       0       0       0       0       0       
      +0       0
  2371 ;;Total ram usage:        0 bytes
  2372 ;; Hardware stack levels required when called:    8
  2373 ;; This function calls:
  2374 ;;		_PIN_MANAGER_Initialize
  2375 ;;		_SYSTEM_Initialize
  2376 ;; This function is called by:
  2377 ;;		Startup code after reset
  2378 ;; This function uses a non-reentrant model
  2379 ;;
  2380                           
  2381                           
  2382                           ;psect for function _main
  2383  00BD                     _main:	
  2384                           
  2385                           ;main.c: 25: debo.getKey = (*button);
  2386                           
  2387                           ;incstack = 0
  2388                           ; Regs used in _main: [wreg+status,2+status,0+pclath+cstack]
  2389  00BD  3004               	movlw	low _button
  2390  00BE  0020               	movlb	0	; select bank0
  2391  00BF  00A8               	movwf	low ((_debo| 0+8))
  2392  00C0  3001               	movlw	high _button
  2393  00C1  00A9               	movwf	(low ((_debo| 0+8))+1)
  2394                           
  2395                           ;main.c: 28: SYSTEM_Initialize();
  2396  00C2  3180  20F8  3180   	fcall	_SYSTEM_Initialize
  2397                           
  2398                           ;main.c: 29: PIN_MANAGER_Initialize();
  2399  00C5  3180  20A2  3180   	fcall	_PIN_MANAGER_Initialize
  2400                           
  2401                           ;main.c: 32: (INTCONbits.GIE = 1);
  2402  00C8  178B               	bsf	11,7	;volatile
  2403  00C9  28CC               	goto	l826
  2404  00CA                     l155:	
  2405                           ;main.c: 36: do { LATAbits.LATA5 = 0; } while(0);
  2406                           
  2407  00CA  0022               	movlb	2	; select bank2
  2408  00CB  128C               	bcf	12,5	;volatile
  2409  00CC                     l826:	
  2410                           ;main.c: 34: while ( 1 ) {
  2411                           
  2412                           ;main.c: 37: } else {
  2413                           
  2414                           
  2415                           ;main.c: 35: if ( debo.sw ) {
  2416  00CC  0020               	movlb	0	; select bank0
  2417  00CD  0824               	movf	_debo+4,w
  2418  00CE  0425               	iorwf	_debo+5,w
  2419  00CF  1D03               	btfss	3,2
  2420  00D0  28CA               	goto	l155
  2421                           
  2422                           ;main.c: 38: do { LATAbits.LATA5 = 1; } while(0);
  2423  00D1  0022               	movlb	2	; select bank2
  2424  00D2  168C               	bsf	12,5	;volatile
  2425  00D3  28CC               	goto	l826
  2426  00D4                     __end_of_main:	
  2427                           
  2428                           	psect	text1
  2429  00F8                     __ptext1:	
  2430 ;; *************** function _SYSTEM_Initialize *****************
  2431 ;; Defined at:
  2432 ;;		line 76 in file "mcc_generated_files/mcc.c"
  2433 ;; Parameters:    Size  Location     Type
  2434 ;;		None
  2435 ;; Auto vars:     Size  Location     Type
  2436 ;;		None
  2437 ;; Return value:  Size  Location     Type
  2438 ;;                  1    wreg      void 
  2439 ;; Registers used:
  2440 ;;		wreg, status,2, status,0, pclath, cstack
  2441 ;; Tracked objects:
  2442 ;;		On entry : 0/0
  2443 ;;		On exit  : 0/0
  2444 ;;		Unchanged: 0/0
  2445 ;; Data sizes:     COMMON   BANK0   BANK1   BANK2   BANK3   BANK4   BANK5   BANK6   BANK7   BANK8   BANK9  BANK10  BANK1
      +1  BANK12
  2446 ;;      Params:         0       0       0       0       0       0       0       0       0       0       0       0       
      +0       0
  2447 ;;      Locals:         0       0       0       0       0       0       0       0       0       0       0       0       
      +0       0
  2448 ;;      Temps:          0       0       0       0       0       0       0       0       0       0       0       0       
      +0       0
  2449 ;;      Totals:         0       0       0       0       0       0       0       0       0       0       0       0       
      +0       0
  2450 ;;Total ram usage:        0 bytes
  2451 ;; Hardware stack levels used:    1
  2452 ;; Hardware stack levels required when called:    7
  2453 ;; This function calls:
  2454 ;;		_OSCILLATOR_Initialize
  2455 ;;		_PIN_MANAGER_Initialize
  2456 ;;		_TMR0_Initialize
  2457 ;;		_WDT_Initialize
  2458 ;; This function is called by:
  2459 ;;		_main
  2460 ;; This function uses a non-reentrant model
  2461 ;;
  2462                           
  2463                           
  2464                           ;psect for function _SYSTEM_Initialize
  2465  00F8                     _SYSTEM_Initialize:	
  2466                           
  2467                           ;mcc.c: 79: PIN_MANAGER_Initialize();
  2468                           
  2469                           ;incstack = 0
  2470                           ; Regs used in _SYSTEM_Initialize: [wreg+status,2+status,0+pclath+cstack]
  2471  00F8  3180  20A2  3180   	fcall	_PIN_MANAGER_Initialize
  2472                           
  2473                           ;mcc.c: 80: OSCILLATOR_Initialize();
  2474  00FB  3181  210E  3180   	fcall	_OSCILLATOR_Initialize
  2475                           
  2476                           ;mcc.c: 81: WDT_Initialize();
  2477  00FE  3181  2122  3180   	fcall	_WDT_Initialize
  2478                           
  2479                           ;mcc.c: 82: TMR0_Initialize();
  2480  0101  3180  20D4         	fcall	_TMR0_Initialize
  2481  0103  0008               	return
  2482  0104                     __end_of_SYSTEM_Initialize:	
  2483                           
  2484                           	psect	text2
  2485  0122                     __ptext2:	
  2486 ;; *************** function _WDT_Initialize *****************
  2487 ;; Defined at:
  2488 ;;		line 101 in file "mcc_generated_files/mcc.c"
  2489 ;; Parameters:    Size  Location     Type
  2490 ;;		None
  2491 ;; Auto vars:     Size  Location     Type
  2492 ;;		None
  2493 ;; Return value:  Size  Location     Type
  2494 ;;                  1    wreg      void 
  2495 ;; Registers used:
  2496 ;;		wreg
  2497 ;; Tracked objects:
  2498 ;;		On entry : 0/0
  2499 ;;		On exit  : 0/0
  2500 ;;		Unchanged: 0/0
  2501 ;; Data sizes:     COMMON   BANK0   BANK1   BANK2   BANK3   BANK4   BANK5   BANK6   BANK7   BANK8   BANK9  BANK10  BANK1
      +1  BANK12
  2502 ;;      Params:         0       0       0       0       0       0       0       0       0       0       0       0       
      +0       0
  2503 ;;      Locals:         0       0       0       0       0       0       0       0       0       0       0       0       
      +0       0
  2504 ;;      Temps:          0       0       0       0       0       0       0       0       0       0       0       0       
      +0       0
  2505 ;;      Totals:         0       0       0       0       0       0       0       0       0       0       0       0       
      +0       0
  2506 ;;Total ram usage:        0 bytes
  2507 ;; Hardware stack levels used:    1
  2508 ;; Hardware stack levels required when called:    5
  2509 ;; This function calls:
  2510 ;;		Nothing
  2511 ;; This function is called by:
  2512 ;;		_SYSTEM_Initialize
  2513 ;; This function uses a non-reentrant model
  2514 ;;
  2515                           
  2516                           
  2517                           ;psect for function _WDT_Initialize
  2518  0122                     _WDT_Initialize:	
  2519                           
  2520                           ;mcc.c: 104: WDTCON = 0x16;
  2521                           
  2522                           ;incstack = 0
  2523                           ; Regs used in _WDT_Initialize: [wreg]
  2524  0122  3016               	movlw	22
  2525  0123  0021               	movlb	1	; select bank1
  2526  0124  0097               	movwf	23	;volatile
  2527  0125  0008               	return
  2528  0126                     __end_of_WDT_Initialize:	
  2529                           
  2530                           	psect	text3
  2531  00D4                     __ptext3:	
  2532 ;; *************** function _TMR0_Initialize *****************
  2533 ;; Defined at:
  2534 ;;		line 61 in file "mcc_generated_files/tmr0.c"
  2535 ;; Parameters:    Size  Location     Type
  2536 ;;		None
  2537 ;; Auto vars:     Size  Location     Type
  2538 ;;		None
  2539 ;; Return value:  Size  Location     Type
  2540 ;;                  1    wreg      void 
  2541 ;; Registers used:
  2542 ;;		wreg, status,2, status,0, pclath, cstack
  2543 ;; Tracked objects:
  2544 ;;		On entry : 0/0
  2545 ;;		On exit  : 0/0
  2546 ;;		Unchanged: 0/0
  2547 ;; Data sizes:     COMMON   BANK0   BANK1   BANK2   BANK3   BANK4   BANK5   BANK6   BANK7   BANK8   BANK9  BANK10  BANK1
      +1  BANK12
  2548 ;;      Params:         0       0       0       0       0       0       0       0       0       0       0       0       
      +0       0
  2549 ;;      Locals:         0       0       0       0       0       0       0       0       0       0       0       0       
      +0       0
  2550 ;;      Temps:          0       0       0       0       0       0       0       0       0       0       0       0       
      +0       0
  2551 ;;      Totals:         0       0       0       0       0       0       0       0       0       0       0       0       
      +0       0
  2552 ;;Total ram usage:        0 bytes
  2553 ;; Hardware stack levels used:    1
  2554 ;; Hardware stack levels required when called:    6
  2555 ;; This function calls:
  2556 ;;		_TMR0_SetInterruptHandler
  2557 ;;		_TMR0_StartTimer
  2558 ;; This function is called by:
  2559 ;;		_SYSTEM_Initialize
  2560 ;; This function uses a non-reentrant model
  2561 ;;
  2562                           
  2563                           
  2564                           ;psect for function _TMR0_Initialize
  2565  00D4                     _TMR0_Initialize:	
  2566                           
  2567                           ;tmr0.c: 66: T0CON0 = 0x09;
  2568                           
  2569                           ;incstack = 0
  2570                           ; Regs used in _TMR0_Initialize: [wreg+status,2+status,0+pclath+cstack]
  2571  00D4  3009               	movlw	9
  2572  00D5  0020               	movlb	0	; select bank0
  2573  00D6  0097               	movwf	23	;volatile
  2574                           
  2575                           ;tmr0.c: 69: T0CON1 = 0x41;
  2576  00D7  3041               	movlw	65
  2577  00D8  0098               	movwf	24	;volatile
  2578                           
  2579                           ;tmr0.c: 72: TMR0H = 0xF9;
  2580  00D9  30F9               	movlw	249
  2581  00DA  0096               	movwf	22	;volatile
  2582                           
  2583                           ;tmr0.c: 75: TMR0L = 0x00;
  2584  00DB  0195               	clrf	21	;volatile
  2585                           
  2586                           ;tmr0.c: 78: PIR0bits.TMR0IF = 0;
  2587  00DC  1290               	bcf	16,5	;volatile
  2588                           
  2589                           ;tmr0.c: 81: PIE0bits.TMR0IE = 1;
  2590  00DD  0021               	movlb	1	; select bank1
  2591  00DE  1690               	bsf	16,5	;volatile
  2592                           
  2593                           ;tmr0.c: 84: TMR0_SetInterruptHandler(TMR0_DefaultInterruptHandler);
  2594  00DF  3029               	movlw	low _TMR0_DefaultInterruptHandler
  2595  00E0  0020               	movlb	0	; select bank0
  2596  00E1  00AA               	movwf	TMR0_SetInterruptHandler@InterruptHandler
  2597  00E2  3001               	movlw	high _TMR0_DefaultInterruptHandler
  2598  00E3  00AB               	movwf	TMR0_SetInterruptHandler@InterruptHandler+1
  2599  00E4  3181  2117  3180   	fcall	_TMR0_SetInterruptHandler
  2600                           
  2601                           ;tmr0.c: 87: TMR0_StartTimer();
  2602  00E7  3181  2126         	fcall	_TMR0_StartTimer
  2603  00E9  0008               	return
  2604  00EA                     __end_of_TMR0_Initialize:	
  2605                           
  2606                           	psect	text4
  2607  0126                     __ptext4:	
  2608 ;; *************** function _TMR0_StartTimer *****************
  2609 ;; Defined at:
  2610 ;;		line 90 in file "mcc_generated_files/tmr0.c"
  2611 ;; Parameters:    Size  Location     Type
  2612 ;;		None
  2613 ;; Auto vars:     Size  Location     Type
  2614 ;;		None
  2615 ;; Return value:  Size  Location     Type
  2616 ;;                  1    wreg      void 
  2617 ;; Registers used:
  2618 ;;		None
  2619 ;; Tracked objects:
  2620 ;;		On entry : 0/0
  2621 ;;		On exit  : 0/0
  2622 ;;		Unchanged: 0/0
  2623 ;; Data sizes:     COMMON   BANK0   BANK1   BANK2   BANK3   BANK4   BANK5   BANK6   BANK7   BANK8   BANK9  BANK10  BANK1
      +1  BANK12
  2624 ;;      Params:         0       0       0       0       0       0       0       0       0       0       0       0       
      +0       0
  2625 ;;      Locals:         0       0       0       0       0       0       0       0       0       0       0       0       
      +0       0
  2626 ;;      Temps:          0       0       0       0       0       0       0       0       0       0       0       0       
      +0       0
  2627 ;;      Totals:         0       0       0       0       0       0       0       0       0       0       0       0       
      +0       0
  2628 ;;Total ram usage:        0 bytes
  2629 ;; Hardware stack levels used:    1
  2630 ;; Hardware stack levels required when called:    5
  2631 ;; This function calls:
  2632 ;;		Nothing
  2633 ;; This function is called by:
  2634 ;;		_TMR0_Initialize
  2635 ;; This function uses a non-reentrant model
  2636 ;;
  2637                           
  2638                           
  2639                           ;psect for function _TMR0_StartTimer
  2640  0126                     _TMR0_StartTimer:	
  2641                           
  2642                           ;tmr0.c: 93: T0CON0bits.T0EN = 1;
  2643                           
  2644                           ;incstack = 0
  2645                           ; Regs used in _TMR0_StartTimer: []
  2646  0126  0020               	movlb	0	; select bank0
  2647  0127  1797               	bsf	23,7	;volatile
  2648  0128  0008               	return
  2649  0129                     __end_of_TMR0_StartTimer:	
  2650                           
  2651                           	psect	text5
  2652  0117                     __ptext5:	
  2653 ;; *************** function _TMR0_SetInterruptHandler *****************
  2654 ;; Defined at:
  2655 ;;		line 147 in file "mcc_generated_files/tmr0.c"
  2656 ;; Parameters:    Size  Location     Type
  2657 ;;  InterruptHan    2    0[BANK0 ] PTR void 
  2658 ;;		 -> TMR0_DefaultInterruptHandler(1), 
  2659 ;; Auto vars:     Size  Location     Type
  2660 ;;		None
  2661 ;; Return value:  Size  Location     Type
  2662 ;;                  1    wreg      void 
  2663 ;; Registers used:
  2664 ;;		wreg
  2665 ;; Tracked objects:
  2666 ;;		On entry : 0/0
  2667 ;;		On exit  : 0/0
  2668 ;;		Unchanged: 0/0
  2669 ;; Data sizes:     COMMON   BANK0   BANK1   BANK2   BANK3   BANK4   BANK5   BANK6   BANK7   BANK8   BANK9  BANK10  BANK1
      +1  BANK12
  2670 ;;      Params:         0       2       0       0       0       0       0       0       0       0       0       0       
      +0       0
  2671 ;;      Locals:         0       0       0       0       0       0       0       0       0       0       0       0       
      +0       0
  2672 ;;      Temps:          0       0       0       0       0       0       0       0       0       0       0       0       
      +0       0
  2673 ;;      Totals:         0       2       0       0       0       0       0       0       0       0       0       0       
      +0       0
  2674 ;;Total ram usage:        2 bytes
  2675 ;; Hardware stack levels used:    1
  2676 ;; Hardware stack levels required when called:    5
  2677 ;; This function calls:
  2678 ;;		Nothing
  2679 ;; This function is called by:
  2680 ;;		_TMR0_Initialize
  2681 ;; This function uses a non-reentrant model
  2682 ;;
  2683                           
  2684                           
  2685                           ;psect for function _TMR0_SetInterruptHandler
  2686  0117                     _TMR0_SetInterruptHandler:	
  2687                           
  2688                           ;tmr0.c: 148: TMR0_InterruptHandler = InterruptHandler;
  2689                           
  2690                           ;incstack = 0
  2691                           ; Regs used in _TMR0_SetInterruptHandler: [wreg]
  2692  0117  0020               	movlb	0	; select bank0
  2693  0118  082B               	movf	TMR0_SetInterruptHandler@InterruptHandler+1,w
  2694  0119  00FB               	movwf	_TMR0_InterruptHandler+1
  2695  011A  082A               	movf	TMR0_SetInterruptHandler@InterruptHandler,w
  2696  011B  00FA               	movwf	_TMR0_InterruptHandler
  2697  011C  0008               	return
  2698  011D                     __end_of_TMR0_SetInterruptHandler:	
  2699                           
  2700                           	psect	text6
  2701  00A2                     __ptext6:	
  2702 ;; *************** function _PIN_MANAGER_Initialize *****************
  2703 ;; Defined at:
  2704 ;;		line 51 in file "mcc_generated_files/pin_manager.c"
  2705 ;; Parameters:    Size  Location     Type
  2706 ;;		None
  2707 ;; Auto vars:     Size  Location     Type
  2708 ;;		None
  2709 ;; Return value:  Size  Location     Type
  2710 ;;                  1    wreg      void 
  2711 ;; Registers used:
  2712 ;;		wreg, status,2
  2713 ;; Tracked objects:
  2714 ;;		On entry : 0/0
  2715 ;;		On exit  : 0/0
  2716 ;;		Unchanged: 0/0
  2717 ;; Data sizes:     COMMON   BANK0   BANK1   BANK2   BANK3   BANK4   BANK5   BANK6   BANK7   BANK8   BANK9  BANK10  BANK1
      +1  BANK12
  2718 ;;      Params:         0       0       0       0       0       0       0       0       0       0       0       0       
      +0       0
  2719 ;;      Locals:         0       0       0       0       0       0       0       0       0       0       0       0       
      +0       0
  2720 ;;      Temps:          0       0       0       0       0       0       0       0       0       0       0       0       
      +0       0
  2721 ;;      Totals:         0       0       0       0       0       0       0       0       0       0       0       0       
      +0       0
  2722 ;;Total ram usage:        0 bytes
  2723 ;; Hardware stack levels used:    1
  2724 ;; Hardware stack levels required when called:    5
  2725 ;; This function calls:
  2726 ;;		Nothing
  2727 ;; This function is called by:
  2728 ;;		_SYSTEM_Initialize
  2729 ;;		_main
  2730 ;; This function uses a non-reentrant model
  2731 ;;
  2732                           
  2733                           
  2734                           ;psect for function _PIN_MANAGER_Initialize
  2735  00A2                     _PIN_MANAGER_Initialize:	
  2736                           
  2737                           ;pin_manager.c: 56: LATA = 0x00;
  2738                           
  2739                           ;incstack = 0
  2740                           ; Regs used in _PIN_MANAGER_Initialize: [wreg+status,2]
  2741  00A2  0022               	movlb	2	; select bank2
  2742  00A3  018C               	clrf	12	;volatile
  2743                           
  2744                           ;pin_manager.c: 57: LATB = 0x00;
  2745  00A4  018D               	clrf	13	;volatile
  2746                           
  2747                           ;pin_manager.c: 58: LATC = 0x00;
  2748  00A5  018E               	clrf	14	;volatile
  2749                           
  2750                           ;pin_manager.c: 63: TRISA = 0x17;
  2751  00A6  3017               	movlw	23
  2752  00A7  0021               	movlb	1	; select bank1
  2753  00A8  008C               	movwf	12	;volatile
  2754                           
  2755                           ;pin_manager.c: 64: TRISB = 0xF0;
  2756  00A9  30F0               	movlw	240
  2757  00AA  008D               	movwf	13	;volatile
  2758                           
  2759                           ;pin_manager.c: 65: TRISC = 0xDF;
  2760  00AB  30DF               	movlw	223
  2761  00AC  008E               	movwf	14	;volatile
  2762                           
  2763                           ;pin_manager.c: 70: ANSELC = 0xEF;
  2764  00AD  30EF               	movlw	239
  2765  00AE  0023               	movlb	3	; select bank3
  2766  00AF  008E               	movwf	14	;volatile
  2767                           
  2768                           ;pin_manager.c: 71: ANSELB = 0xF0;
  2769  00B0  30F0               	movlw	240
  2770  00B1  008D               	movwf	13	;volatile
  2771                           
  2772                           ;pin_manager.c: 72: ANSELA = 0x17;
  2773  00B2  3017               	movlw	23
  2774  00B3  008C               	movwf	12	;volatile
  2775                           
  2776                           ;pin_manager.c: 77: WPUB = 0x00;
  2777  00B4  0024               	movlb	4	; select bank4
  2778  00B5  018D               	clrf	13	;volatile
  2779                           
  2780                           ;pin_manager.c: 78: WPUA = 0x00;
  2781  00B6  018C               	clrf	12	;volatile
  2782                           
  2783                           ;pin_manager.c: 79: WPUC = 0x00;
  2784  00B7  018E               	clrf	14	;volatile
  2785                           
  2786                           ;pin_manager.c: 84: ODCONA = 0x00;
  2787  00B8  0025               	movlb	5	; select bank5
  2788  00B9  018C               	clrf	12	;volatile
  2789                           
  2790                           ;pin_manager.c: 85: ODCONB = 0x00;
  2791  00BA  018D               	clrf	13	;volatile
  2792                           
  2793                           ;pin_manager.c: 86: ODCONC = 0x00;
  2794  00BB  018E               	clrf	14	;volatile
  2795  00BC  0008               	return
  2796  00BD                     __end_of_PIN_MANAGER_Initialize:	
  2797                           
  2798                           	psect	text7
  2799  010E                     __ptext7:	
  2800 ;; *************** function _OSCILLATOR_Initialize *****************
  2801 ;; Defined at:
  2802 ;;		line 85 in file "mcc_generated_files/mcc.c"
  2803 ;; Parameters:    Size  Location     Type
  2804 ;;		None
  2805 ;; Auto vars:     Size  Location     Type
  2806 ;;		None
  2807 ;; Return value:  Size  Location     Type
  2808 ;;                  1    wreg      void 
  2809 ;; Registers used:
  2810 ;;		wreg, status,2
  2811 ;; Tracked objects:
  2812 ;;		On entry : 0/0
  2813 ;;		On exit  : 0/0
  2814 ;;		Unchanged: 0/0
  2815 ;; Data sizes:     COMMON   BANK0   BANK1   BANK2   BANK3   BANK4   BANK5   BANK6   BANK7   BANK8   BANK9  BANK10  BANK1
      +1  BANK12
  2816 ;;      Params:         0       0       0       0       0       0       0       0       0       0       0       0       
      +0       0
  2817 ;;      Locals:         0       0       0       0       0       0       0       0       0       0       0       0       
      +0       0
  2818 ;;      Temps:          0       0       0       0       0       0       0       0       0       0       0       0       
      +0       0
  2819 ;;      Totals:         0       0       0       0       0       0       0       0       0       0       0       0       
      +0       0
  2820 ;;Total ram usage:        0 bytes
  2821 ;; Hardware stack levels used:    1
  2822 ;; Hardware stack levels required when called:    5
  2823 ;; This function calls:
  2824 ;;		Nothing
  2825 ;; This function is called by:
  2826 ;;		_SYSTEM_Initialize
  2827 ;; This function uses a non-reentrant model
  2828 ;;
  2829                           
  2830                           
  2831                           ;psect for function _OSCILLATOR_Initialize
  2832  010E                     _OSCILLATOR_Initialize:	
  2833                           
  2834                           ;mcc.c: 88: OSCCON1 = 0x62;
  2835                           
  2836                           ;incstack = 0
  2837                           ; Regs used in _OSCILLATOR_Initialize: [wreg+status,2]
  2838  010E  3062               	movlw	98
  2839  010F  0032               	movlb	18	; select bank18
  2840  0110  0099               	movwf	25	;volatile
  2841                           
  2842                           ;mcc.c: 90: OSCCON3 = 0x00;
  2843  0111  019B               	clrf	27	;volatile
  2844                           
  2845                           ;mcc.c: 92: OSCEN = 0x00;
  2846  0112  019D               	clrf	29	;volatile
  2847                           
  2848                           ;mcc.c: 94: OSCFRQ = 0x06;
  2849  0113  3006               	movlw	6
  2850  0114  009F               	movwf	31	;volatile
  2851                           
  2852                           ;mcc.c: 96: OSCTUNE = 0x00;
  2853  0115  019E               	clrf	30	;volatile
  2854  0116  0008               	return
  2855  0117                     __end_of_OSCILLATOR_Initialize:	
  2856                           
  2857                           	psect	intentry
  2858  0004                     __pintentry:	
  2859 ;; *************** function _INTERRUPT_InterruptManager *****************
  2860 ;; Defined at:
  2861 ;;		line 51 in file "mcc_generated_files/interrupt_manager.c"
  2862 ;; Parameters:    Size  Location     Type
  2863 ;;		None
  2864 ;; Auto vars:     Size  Location     Type
  2865 ;;		None
  2866 ;; Return value:  Size  Location     Type
  2867 ;;                  1    wreg      void 
  2868 ;; Registers used:
  2869 ;;		wreg, fsr0l, fsr0h, fsr1l, fsr1h, status,2, status,0, pclath, cstack
  2870 ;; Tracked objects:
  2871 ;;		On entry : 0/0
  2872 ;;		On exit  : 0/0
  2873 ;;		Unchanged: 0/0
  2874 ;; Data sizes:     COMMON   BANK0   BANK1   BANK2   BANK3   BANK4   BANK5   BANK6   BANK7   BANK8   BANK9  BANK10  BANK1
      +1  BANK12
  2875 ;;      Params:         0       0       0       0       0       0       0       0       0       0       0       0       
      +0       0
  2876 ;;      Locals:         0       0       0       0       0       0       0       0       0       0       0       0       
      +0       0
  2877 ;;      Temps:          1       0       0       0       0       0       0       0       0       0       0       0       
      +0       0
  2878 ;;      Totals:         1       0       0       0       0       0       0       0       0       0       0       0       
      +0       0
  2879 ;;Total ram usage:        1 bytes
  2880 ;; Hardware stack levels used:    1
  2881 ;; Hardware stack levels required when called:    4
  2882 ;; This function calls:
  2883 ;;		_TMR0_ISR
  2884 ;; This function is called by:
  2885 ;;		Interrupt level 1
  2886 ;; This function uses a non-reentrant model
  2887 ;;
  2888                           
  2889  0004                     _INTERRUPT_InterruptManager:	
  2890                           
  2891                           ;incstack = 0
  2892  0004  147E               	bsf	126,0	;set compiler interrupt flag (level 1)
  2893                           
  2894                           ; Regs used in _INTERRUPT_InterruptManager: [wreg-fsr1h+status,2+status,0+pclath+cstack]
  2895  0005  3180               	pagesel	$
  2896  0006  0020               	movlb	0	; select bank0
  2897  0007  087F               	movf	127,w
  2898  0008  00F9               	movwf	??_INTERRUPT_InterruptManager
  2899                           
  2900                           ;interrupt_manager.c: 54: if(PIE0bits.TMR0IE == 1 && PIR0bits.TMR0IF == 1)
  2901  0009  0021               	movlb	1	; select bank1
  2902  000A  1E90               	btfss	16,5	;volatile
  2903  000B  2811               	goto	i1l76
  2904  000C  0020               	movlb	0	; select bank0
  2905  000D  1E90               	btfss	16,5	;volatile
  2906  000E  2811               	goto	i1l76
  2907                           
  2908                           ;interrupt_manager.c: 55: {
  2909                           ;interrupt_manager.c: 56: TMR0_ISR();
  2910  000F  3181  211D         	fcall	_TMR0_ISR
  2911  0011                     i1l76:	
  2912                           ;interrupt_manager.c: 58: else
  2913                           ;interrupt_manager.c: 59: {
  2914                           
  2915                           ;interrupt_manager.c: 57: }
  2916                           
  2917  0011  0879               	movf	??_INTERRUPT_InterruptManager,w
  2918  0012  0020               	movlb	0	; select bank0
  2919  0013  00FF               	movwf	127
  2920  0014  107E               	bcf	126,0	;clear compiler interrupt flag (level 1)
  2921  0015  0009               	retfie
  2922  0016                     __end_of_INTERRUPT_InterruptManager:	
  2923                           
  2924                           	psect	text9
  2925  011D                     __ptext9:	
  2926 ;; *************** function _TMR0_ISR *****************
  2927 ;; Defined at:
  2928 ;;		line 124 in file "mcc_generated_files/tmr0.c"
  2929 ;; Parameters:    Size  Location     Type
  2930 ;;		None
  2931 ;; Auto vars:     Size  Location     Type
  2932 ;;		None
  2933 ;; Return value:  Size  Location     Type
  2934 ;;                  1    wreg      void 
  2935 ;; Registers used:
  2936 ;;		wreg, fsr0l, fsr0h, fsr1l, fsr1h, status,2, status,0, pclath, cstack
  2937 ;; Tracked objects:
  2938 ;;		On entry : 0/0
  2939 ;;		On exit  : 0/0
  2940 ;;		Unchanged: 0/0
  2941 ;; Data sizes:     COMMON   BANK0   BANK1   BANK2   BANK3   BANK4   BANK5   BANK6   BANK7   BANK8   BANK9  BANK10  BANK1
      +1  BANK12
  2942 ;;      Params:         0       0       0       0       0       0       0       0       0       0       0       0       
      +0       0
  2943 ;;      Locals:         0       0       0       0       0       0       0       0       0       0       0       0       
      +0       0
  2944 ;;      Temps:          0       0       0       0       0       0       0       0       0       0       0       0       
      +0       0
  2945 ;;      Totals:         0       0       0       0       0       0       0       0       0       0       0       0       
      +0       0
  2946 ;;Total ram usage:        0 bytes
  2947 ;; Hardware stack levels used:    1
  2948 ;; Hardware stack levels required when called:    3
  2949 ;; This function calls:
  2950 ;;		_TMR0_CallBack
  2951 ;; This function is called by:
  2952 ;;		_INTERRUPT_InterruptManager
  2953 ;; This function uses a non-reentrant model
  2954 ;;
  2955                           
  2956                           
  2957                           ;psect for function _TMR0_ISR
  2958  011D                     _TMR0_ISR:	
  2959                           
  2960                           ;tmr0.c: 127: PIR0bits.TMR0IF = 0;
  2961                           
  2962                           ;incstack = 0
  2963                           ; Regs used in _TMR0_ISR: [wreg-fsr1h+status,2+status,0+pclath+cstack]
  2964  011D  0020               	movlb	0	; select bank0
  2965  011E  1290               	bcf	16,5	;volatile
  2966                           
  2967                           ;tmr0.c: 130: TMR0_CallBack();
  2968  011F  3180  20EA         	fcall	_TMR0_CallBack
  2969  0121  0008               	return
  2970  0122                     __end_of_TMR0_ISR:	
  2971                           
  2972                           	psect	text10
  2973  00EA                     __ptext10:	
  2974 ;; *************** function _TMR0_CallBack *****************
  2975 ;; Defined at:
  2976 ;;		line 135 in file "mcc_generated_files/tmr0.c"
  2977 ;; Parameters:    Size  Location     Type
  2978 ;;		None
  2979 ;; Auto vars:     Size  Location     Type
  2980 ;;		None
  2981 ;; Return value:  Size  Location     Type
  2982 ;;                  1    wreg      void 
  2983 ;; Registers used:
  2984 ;;		wreg, fsr0l, fsr0h, fsr1l, fsr1h, status,2, status,0, pclath, cstack
  2985 ;; Tracked objects:
  2986 ;;		On entry : 0/0
  2987 ;;		On exit  : 0/0
  2988 ;;		Unchanged: 0/0
  2989 ;; Data sizes:     COMMON   BANK0   BANK1   BANK2   BANK3   BANK4   BANK5   BANK6   BANK7   BANK8   BANK9  BANK10  BANK1
      +1  BANK12
  2990 ;;      Params:         0       0       0       0       0       0       0       0       0       0       0       0       
      +0       0
  2991 ;;      Locals:         0       0       0       0       0       0       0       0       0       0       0       0       
      +0       0
  2992 ;;      Temps:          0       0       0       0       0       0       0       0       0       0       0       0       
      +0       0
  2993 ;;      Totals:         0       0       0       0       0       0       0       0       0       0       0       0       
      +0       0
  2994 ;;Total ram usage:        0 bytes
  2995 ;; Hardware stack levels used:    1
  2996 ;; Hardware stack levels required when called:    2
  2997 ;; This function calls:
  2998 ;;		Absolute function
  2999 ;;		_TMR0_DefaultInterruptHandler
  3000 ;;		_debounce
  3001 ;; This function is called by:
  3002 ;;		_TMR0_ISR
  3003 ;; This function uses a non-reentrant model
  3004 ;;
  3005                           
  3006                           
  3007                           ;psect for function _TMR0_CallBack
  3008  00EA                     _TMR0_CallBack:	
  3009                           
  3010                           ;tmr0.c: 139: debounce(&debo);
  3011                           
  3012                           ;incstack = 0
  3013                           ; Regs used in _TMR0_CallBack: [wreg-fsr1h+status,2+status,0+pclath+cstack]
  3014  00EA  3020               	movlw	(low (_debo| 0))& (0+255)
  3015  00EB  3180  2027  3180   	fcall	_debounce
  3016                           
  3017                           ;tmr0.c: 141: if(TMR0_InterruptHandler)
  3018  00EE  087A               	movf	_TMR0_InterruptHandler,w
  3019  00EF  047B               	iorwf	_TMR0_InterruptHandler+1,w
  3020  00F0  1903               	btfsc	3,2
  3021  00F1  0008               	return
  3022                           
  3023                           ;tmr0.c: 142: {
  3024                           ;tmr0.c: 143: TMR0_InterruptHandler();
  3025  00F2  087B               	movf	_TMR0_InterruptHandler+1,w
  3026  00F3  008A               	movwf	10
  3027  00F4  087A               	movf	_TMR0_InterruptHandler,w
  3028  00F5  000A               	callw
  3029  00F6  3180               	pagesel	$
  3030  00F7  0008               	return
  3031  00F8                     __end_of_TMR0_CallBack:	
  3032                           
  3033                           	psect	text11
  3034  0027                     __ptext11:	
  3035 ;; *************** function _debounce *****************
  3036 ;; Defined at:
  3037 ;;		line 20 in file "debouncer.c"
  3038 ;; Parameters:    Size  Location     Type
  3039 ;;  debouncer       1    wreg     PTR struct debouncer
  3040 ;;		 -> debo(10), 
  3041 ;; Auto vars:     Size  Location     Type
  3042 ;;  debouncer       1    8[COMMON] PTR struct debouncer
  3043 ;;		 -> debo(10), 
  3044 ;; Return value:  Size  Location     Type
  3045 ;;                  1    wreg      void 
  3046 ;; Registers used:
  3047 ;;		wreg, fsr0l, fsr0h, fsr1l, fsr1h, status,2, status,0, pclath, cstack
  3048 ;; Tracked objects:
  3049 ;;		On entry : 0/0
  3050 ;;		On exit  : 0/0
  3051 ;;		Unchanged: 0/0
  3052 ;; Data sizes:     COMMON   BANK0   BANK1   BANK2   BANK3   BANK4   BANK5   BANK6   BANK7   BANK8   BANK9  BANK10  BANK1
      +1  BANK12
  3053 ;;      Params:         0       0       0       0       0       0       0       0       0       0       0       0       
      +0       0
  3054 ;;      Locals:         1       0       0       0       0       0       0       0       0       0       0       0       
      +0       0
  3055 ;;      Temps:          4       0       0       0       0       0       0       0       0       0       0       0       
      +0       0
  3056 ;;      Totals:         5       0       0       0       0       0       0       0       0       0       0       0       
      +0       0
  3057 ;;Total ram usage:        5 bytes
  3058 ;; Hardware stack levels used:    1
  3059 ;; Hardware stack levels required when called:    1
  3060 ;; This function calls:
  3061 ;;		_button
  3062 ;; This function is called by:
  3063 ;;		_TMR0_CallBack
  3064 ;; This function uses a non-reentrant model
  3065 ;;
  3066                           
  3067                           
  3068                           ;psect for function _debounce
  3069  0027                     _debounce:	
  3070                           
  3071                           ;incstack = 0
  3072                           ; Regs used in _debounce: [wreg-fsr1h+status,2+status,0+pclath+cstack]
  3073                           ;debounce@debouncer stored from wreg
  3074  0027  00F8               	movwf	debounce@debouncer
  3075                           
  3076                           ;debouncer.c: 22: debouncer->sw = debouncer->getKey();
  3077  0028  0878               	movf	debounce@debouncer,w
  3078  0029  3E08               	addlw	8
  3079  002A  0086               	movwf	6
  3080  002B  0187               	clrf	7
  3081  002C  3F41               	moviw [1]fsr1
  3082  002D  008A               	movwf	10
  3083  002E  3F40               	moviw [0]fsr1
  3084  002F  000A               	callw
  3085  0030  3180               	pagesel	$
  3086  0031  0878               	movf	debounce@debouncer,w
  3087  0032  3E04               	addlw	4
  3088  0033  0086               	movwf	6
  3089  0034  0187               	clrf	7
  3090  0035  0870               	movf	?_button,w
  3091  0036  3FC0               	movwi [0]fsr1
  3092  0037  0871               	movf	?_button+1,w
  3093  0038  3FC1               	movwi [1]fsr1
  3094                           
  3095                           ;debouncer.c: 24: if (debouncer->sw == debouncer->debounced) {
  3096  0039  0878               	movf	debounce@debouncer,w
  3097  003A  3E02               	addlw	2
  3098  003B  0086               	movwf	6
  3099  003C  0187               	clrf	7
  3100  003D  3F40               	moviw [0]fsr1
  3101  003E  00F4               	movwf	??_debounce
  3102  003F  3F41               	moviw [1]fsr1
  3103  0040  00F5               	movwf	??_debounce+1
  3104  0041  0878               	movf	debounce@debouncer,w
  3105  0042  3E04               	addlw	4
  3106  0043  0086               	movwf	6
  3107  0044  0187               	clrf	7
  3108  0045  3F40               	moviw [0]fsr1
  3109  0046  00F6               	movwf	??_debounce+2
  3110  0047  3F41               	moviw [1]fsr1
  3111  0048  00F7               	movwf	??_debounce+3
  3112  0049  0875               	movf	??_debounce+1,w
  3113  004A  0677               	xorwf	??_debounce+3,w
  3114  004B  1D03               	skipz
  3115  004C  284F               	goto	u9_25
  3116  004D  0874               	movf	??_debounce,w
  3117  004E  0676               	xorwf	??_debounce+2,w
  3118  004F                     u9_25:	
  3119  004F  1D03               	skipz
  3120  0050  2869               	goto	i1l752
  3121                           
  3122                           ;debouncer.c: 25: if (debouncer->debounced) {
  3123  0051  0878               	movf	debounce@debouncer,w
  3124  0052  3E02               	addlw	2
  3125  0053  0086               	movwf	6
  3126  0054  0187               	clrf	7
  3127  0055  0016               	moviw fsr1++
  3128  0056  0401               	iorwf	1,w
  3129  0057  1903               	btfsc	3,2
  3130  0058  2861               	goto	i1l750
  3131                           
  3132                           ;debouncer.c: 26: debouncer->counter = 100/5;
  3133  0059  0878               	movf	debounce@debouncer,w
  3134  005A  0086               	movwf	6
  3135  005B  0187               	clrf	7
  3136  005C  3014               	movlw	20
  3137  005D  3FC0               	movwi [0]fsr1
  3138  005E  3000               	movlw	0
  3139  005F  3FC1               	movwi [1]fsr1
  3140                           
  3141                           ;debouncer.c: 27: } else {
  3142  0060  0008               	return
  3143  0061                     i1l750:	
  3144                           
  3145                           ;debouncer.c: 28: debouncer->counter = 10/5;
  3146  0061  0878               	movf	debounce@debouncer,w
  3147  0062  0086               	movwf	6
  3148  0063  0187               	clrf	7
  3149  0064  3002               	movlw	2
  3150  0065  3FC0               	movwi [0]fsr1
  3151  0066  3000               	movlw	0
  3152  0067  3FC1               	movwi [1]fsr1
  3153                           
  3154                           ;debouncer.c: 29: }
  3155                           ;debouncer.c: 30: } else {
  3156  0068  0008               	return
  3157  0069                     i1l752:	
  3158                           
  3159                           ;debouncer.c: 31: if (--debouncer->counter == 0) {
  3160  0069  0878               	movf	debounce@debouncer,w
  3161  006A  0086               	movwf	6
  3162  006B  0187               	clrf	7
  3163  006C  30FF               	movlw	255
  3164  006D  0781               	addwf	1,f
  3165  006E  3141               	addfsr 1,1
  3166  006F  30FF               	movlw	255
  3167  0070  3D81               	addwfc	1,f
  3168  0071  317F               	addfsr 1,-1
  3169  0072  0016               	moviw fsr1++
  3170  0073  0401               	iorwf	1,w
  3171  0074  1D03               	btfss	3,2
  3172  0075  0008               	return
  3173                           
  3174                           ;debouncer.c: 32: debouncer->debounced = debouncer->sw;
  3175  0076  0878               	movf	debounce@debouncer,w
  3176  0077  3E04               	addlw	4
  3177  0078  0086               	movwf	6
  3178  0079  0187               	clrf	7
  3179  007A  0878               	movf	debounce@debouncer,w
  3180  007B  3E02               	addlw	2
  3181  007C  0084               	movwf	4
  3182  007D  0185               	clrf	5
  3183  007E  3F40               	moviw [0]fsr1
  3184  007F  3F80               	movwi [0]fsr0
  3185  0080  3F41               	moviw [1]fsr1
  3186  0081  3F81               	movwi [1]fsr0
  3187                           
  3188                           ;debouncer.c: 33: debouncer->change = 1;
  3189  0082  0878               	movf	debounce@debouncer,w
  3190  0083  3E06               	addlw	6
  3191  0084  0086               	movwf	6
  3192  0085  0187               	clrf	7
  3193  0086  3001               	movlw	1
  3194  0087  3FC0               	movwi [0]fsr1
  3195  0088  3000               	movlw	0
  3196  0089  3FC1               	movwi [1]fsr1
  3197                           
  3198                           ;debouncer.c: 34: if (debouncer->debounced) {
  3199  008A  0878               	movf	debounce@debouncer,w
  3200  008B  3E02               	addlw	2
  3201  008C  0086               	movwf	6
  3202  008D  0187               	clrf	7
  3203  008E  0016               	moviw fsr1++
  3204  008F  0401               	iorwf	1,w
  3205  0090  1903               	btfsc	3,2
  3206  0091  289A               	goto	i1l762
  3207                           
  3208                           ;debouncer.c: 35: debouncer->counter = 100/5;
  3209  0092  0878               	movf	debounce@debouncer,w
  3210  0093  0086               	movwf	6
  3211  0094  0187               	clrf	7
  3212  0095  3014               	movlw	20
  3213  0096  3FC0               	movwi [0]fsr1
  3214  0097  3000               	movlw	0
  3215  0098  3FC1               	movwi [1]fsr1
  3216                           
  3217                           ;debouncer.c: 36: } else {
  3218  0099  0008               	return
  3219  009A                     i1l762:	
  3220                           
  3221                           ;debouncer.c: 37: debouncer->counter = 10/5;
  3222  009A  0878               	movf	debounce@debouncer,w
  3223  009B  0086               	movwf	6
  3224  009C  0187               	clrf	7
  3225  009D  3002               	movlw	2
  3226  009E  3FC0               	movwi [0]fsr1
  3227  009F  3000               	movlw	0
  3228  00A0  3FC1               	movwi [1]fsr1
  3229  00A1  0008               	return
  3230  00A2                     __end_of_debounce:	
  3231                           
  3232                           	psect	text12
  3233  0104                     __ptext12:	
  3234 ;; *************** function _button *****************
  3235 ;; Defined at:
  3236 ;;		line 17 in file "main.c"
  3237 ;; Parameters:    Size  Location     Type
  3238 ;;		None
  3239 ;; Auto vars:     Size  Location     Type
  3240 ;;		None
  3241 ;; Return value:  Size  Location     Type
  3242 ;;                  2    0[COMMON] int 
  3243 ;; Registers used:
  3244 ;;		wreg, status,2, status,0
  3245 ;; Tracked objects:
  3246 ;;		On entry : 0/0
  3247 ;;		On exit  : 0/0
  3248 ;;		Unchanged: 0/0
  3249 ;; Data sizes:     COMMON   BANK0   BANK1   BANK2   BANK3   BANK4   BANK5   BANK6   BANK7   BANK8   BANK9  BANK10  BANK1
      +1  BANK12
  3250 ;;      Params:         2       0       0       0       0       0       0       0       0       0       0       0       
      +0       0
  3251 ;;      Locals:         0       0       0       0       0       0       0       0       0       0       0       0       
      +0       0
  3252 ;;      Temps:          2       0       0       0       0       0       0       0       0       0       0       0       
      +0       0
  3253 ;;      Totals:         4       0       0       0       0       0       0       0       0       0       0       0       
      +0       0
  3254 ;;Total ram usage:        4 bytes
  3255 ;; Hardware stack levels used:    1
  3256 ;; This function calls:
  3257 ;;		Nothing
  3258 ;; This function is called by:
  3259 ;;		_main
  3260 ;;		_debounce
  3261 ;; This function uses a non-reentrant model
  3262 ;;
  3263                           
  3264                           
  3265                           ;psect for function _button
  3266  0104                     _button:	
  3267                           
  3268                           ;main.c: 18: return PORTCbits.RC4;
  3269                           
  3270                           ;incstack = 0
  3271                           ; Regs used in _button: [wreg+status,2+status,0]
  3272  0104  0020               	movlb	0	; select bank0
  3273  0105  0E0E               	swapf	14,w	;volatile
  3274  0106  3901               	andlw	1
  3275  0107  00F2               	movwf	??_button
  3276  0108  01F3               	clrf	??_button+1
  3277  0109  0872               	movf	??_button,w
  3278  010A  00F0               	movwf	?_button
  3279  010B  0873               	movf	??_button+1,w
  3280  010C  00F1               	movwf	?_button+1
  3281  010D  0008               	return
  3282  010E                     __end_of_button:	
  3283                           
  3284                           	psect	text13
  3285  0129                     __ptext13:	
  3286 ;; *************** function _TMR0_DefaultInterruptHandler *****************
  3287 ;; Defined at:
  3288 ;;		line 151 in file "mcc_generated_files/tmr0.c"
  3289 ;; Parameters:    Size  Location     Type
  3290 ;;		None
  3291 ;; Auto vars:     Size  Location     Type
  3292 ;;		None
  3293 ;; Return value:  Size  Location     Type
  3294 ;;                  1    wreg      void 
  3295 ;; Registers used:
  3296 ;;		None
  3297 ;; Tracked objects:
  3298 ;;		On entry : 0/0
  3299 ;;		On exit  : 0/0
  3300 ;;		Unchanged: 0/0
  3301 ;; Data sizes:     COMMON   BANK0   BANK1   BANK2   BANK3   BANK4   BANK5   BANK6   BANK7   BANK8   BANK9  BANK10  BANK1
      +1  BANK12
  3302 ;;      Params:         0       0       0       0       0       0       0       0       0       0       0       0       
      +0       0
  3303 ;;      Locals:         0       0       0       0       0       0       0       0       0       0       0       0       
      +0       0
  3304 ;;      Temps:          0       0       0       0       0       0       0       0       0       0       0       0       
      +0       0
  3305 ;;      Totals:         0       0       0       0       0       0       0       0       0       0       0       0       
      +0       0
  3306 ;;Total ram usage:        0 bytes
  3307 ;; Hardware stack levels used:    1
  3308 ;; This function calls:
  3309 ;;		Nothing
  3310 ;; This function is called by:
  3311 ;;		_TMR0_Initialize
  3312 ;;		_TMR0_CallBack
  3313 ;; This function uses a non-reentrant model
  3314 ;;
  3315                           
  3316                           
  3317                           ;psect for function _TMR0_DefaultInterruptHandler
  3318  0129                     _TMR0_DefaultInterruptHandler:	
  3319                           
  3320                           ;incstack = 0
  3321                           ; Regs used in _TMR0_DefaultInterruptHandler: []
  3322  0129  0008               	return
  3323  012A                     __end_of_TMR0_DefaultInterruptHandler:	
  3324  007E                     btemp	set	126	;btemp
  3325  007E                     int$flags	set	126
  3326  007E                     wtemp0	set	126


Data Sizes:
    Strings     0
    Constant    0
    Data        0
    BSS         10
    Persistent  2
    Stack       0

Auto Spaces:
    Space          Size  Autos    Used
    COMMON           14     10      12
    BANK0            80      2      12
    BANK1            80      0       0
    BANK2            80      0       0
    BANK3            80      0       0
    BANK4            80      0       0
    BANK5            80      0       0
    BANK6            80      0       0
    BANK7            80      0       0
    BANK8            80      0       0
    BANK9            80      0       0
    BANK10           80      0       0
    BANK11           80      0       0
    BANK12           48      0       0

Pointer List with Targets:

    debounce@debouncer.getKey	PTR FTN()int  size(2) Largest target is 2
		 -> button(), 

    debounce@debouncer	PTR struct debouncer size(1) Largest target is 10
		 -> debo(BANK0[10]), 

    TMR0_SetInterruptHandler@InterruptHandler	PTR void  size(2) Largest target is 1
		 -> TMR0_DefaultInterruptHandler(), 

    TMR0_InterruptHandler	PTR FTN()void  size(2) Largest target is 1
		 -> Absolute function(), TMR0_DefaultInterruptHandler(), 

    S166debouncer$getKey	PTR FTN()int  size(2) Largest target is 2
		 -> button(), 

    debo.getKey	PTR FTN()int  size(2) Largest target is 2
		 -> button(), 


Critical Paths under _main in COMMON

    None.

Critical Paths under _INTERRUPT_InterruptManager in COMMON

    _TMR0_CallBack->_debounce
    _debounce->_button

Critical Paths under _main in BANK0

    _TMR0_Initialize->_TMR0_SetInterruptHandler

Critical Paths under _INTERRUPT_InterruptManager in BANK0

    None.

Critical Paths under _main in BANK1

    None.

Critical Paths under _INTERRUPT_InterruptManager in BANK1

    None.

Critical Paths under _main in BANK2

    None.

Critical Paths under _INTERRUPT_InterruptManager in BANK2

    None.

Critical Paths under _main in BANK3

    None.

Critical Paths under _INTERRUPT_InterruptManager in BANK3

    None.

Critical Paths under _main in BANK4

    None.

Critical Paths under _INTERRUPT_InterruptManager in BANK4

    None.

Critical Paths under _main in BANK5

    None.

Critical Paths under _INTERRUPT_InterruptManager in BANK5

    None.

Critical Paths under _main in BANK6

    None.

Critical Paths under _INTERRUPT_InterruptManager in BANK6

    None.

Critical Paths under _main in BANK7

    None.

Critical Paths under _INTERRUPT_InterruptManager in BANK7

    None.

Critical Paths under _main in BANK8

    None.

Critical Paths under _INTERRUPT_InterruptManager in BANK8

    None.

Critical Paths under _main in BANK9

    None.

Critical Paths under _INTERRUPT_InterruptManager in BANK9

    None.

Critical Paths under _main in BANK10

    None.

Critical Paths under _INTERRUPT_InterruptManager in BANK10

    None.

Critical Paths under _main in BANK11

    None.

Critical Paths under _INTERRUPT_InterruptManager in BANK11

    None.

Critical Paths under _main in BANK12

    None.

Critical Paths under _INTERRUPT_InterruptManager in BANK12

    None.

Call Graph Tables:

 ---------------------------------------------------------------------------------
 (Depth) Function   	        Calls       Base Space   Used Autos Params    Refs
 ---------------------------------------------------------------------------------
 (0) _main                                                 0     0      0      75
             _PIN_MANAGER_Initialize
                  _SYSTEM_Initialize
 ---------------------------------------------------------------------------------
 (1) _SYSTEM_Initialize                                    0     0      0      75
              _OSCILLATOR_Initialize
             _PIN_MANAGER_Initialize
                    _TMR0_Initialize
                     _WDT_Initialize
 ---------------------------------------------------------------------------------
 (2) _WDT_Initialize                                       0     0      0       0
 ---------------------------------------------------------------------------------
 (2) _TMR0_Initialize                                      0     0      0      75
           _TMR0_SetInterruptHandler
                    _TMR0_StartTimer
 ---------------------------------------------------------------------------------
 (3) _TMR0_StartTimer                                      0     0      0       0
 ---------------------------------------------------------------------------------
 (3) _TMR0_SetInterruptHandler                             2     0      2      75
                                              0 BANK0      2     0      2
 ---------------------------------------------------------------------------------
 (2) _PIN_MANAGER_Initialize                               0     0      0       0
 ---------------------------------------------------------------------------------
 (2) _OSCILLATOR_Initialize                                0     0      0       0
 ---------------------------------------------------------------------------------
 Estimated maximum stack depth 3
 ---------------------------------------------------------------------------------
 (Depth) Function   	        Calls       Base Space   Used Autos Params    Refs
 ---------------------------------------------------------------------------------
 (4) _INTERRUPT_InterruptManager                           1     1      0     335
                                              9 COMMON     1     1      0
                           _TMR0_ISR
 ---------------------------------------------------------------------------------
 (5) _TMR0_ISR                                             0     0      0     335
                      _TMR0_CallBack
 ---------------------------------------------------------------------------------
 (6) _TMR0_CallBack                                        0     0      0     335
                   Absolute function *
       _TMR0_DefaultInterruptHandler *
                           _debounce
 ---------------------------------------------------------------------------------
 (7) _debounce                                             5     5      0     335
                                              4 COMMON     5     5      0
                             _button *
 ---------------------------------------------------------------------------------
 (8) _button                                               4     2      2       0
                                              0 COMMON     4     2      2
 ---------------------------------------------------------------------------------
 (7) _TMR0_DefaultInterruptHandler                         0     0      0       0
 ---------------------------------------------------------------------------------
 (7) Absolute function(Fake)                               0     0      0       0
 ---------------------------------------------------------------------------------
 Estimated maximum stack depth 8
 ---------------------------------------------------------------------------------

 Call Graph Graphs:

 _main (ROOT)
   _PIN_MANAGER_Initialize
   _SYSTEM_Initialize
     _OSCILLATOR_Initialize
     _PIN_MANAGER_Initialize
     _TMR0_Initialize
       _TMR0_SetInterruptHandler
       _TMR0_StartTimer
     _WDT_Initialize

 _INTERRUPT_InterruptManager (ROOT)
   _TMR0_ISR
     _TMR0_CallBack
       Absolute function(Fake) *
       _TMR0_DefaultInterruptHandler *
       _debounce *
         _button *

 Address spaces:
Name               Size   Autos  Total    Cost      Usage
BIGRAM             3F0      0       0       0        0.0%
EEDATA             100      0       0       0        0.0%
NULL                 0      0       0       0        0.0%
CODE                 0      0       0       0        0.0%
BITCOMMON            E      0       0       1        0.0%
BITSFR0              0      0       0       1        0.0%
SFR0                 0      0       0       1        0.0%
COMMON               E      A       C       2       85.7%
BITSFR1              0      0       0       2        0.0%
SFR1                 0      0       0       2        0.0%
BITSFR2              0      0       0       3        0.0%
SFR2                 0      0       0       3        0.0%
STACK                0      0       0       3        0.0%
BITBANK0            50      0       0       4        0.0%
BITSFR3              0      0       0       4        0.0%
SFR3                 0      0       0       4        0.0%
BANK0               50      2       C       5       15.0%
BITSFR4              0      0       0       5        0.0%
SFR4                 0      0       0       5        0.0%
BITBANK1            50      0       0       6        0.0%
BITSFR5              0      0       0       6        0.0%
SFR5                 0      0       0       6        0.0%
BANK1               50      0       0       7        0.0%
BITSFR6              0      0       0       7        0.0%
SFR6                 0      0       0       7        0.0%
BITBANK2            50      0       0       8        0.0%
BITSFR7              0      0       0       8        0.0%
SFR7                 0      0       0       8        0.0%
BANK2               50      0       0       9        0.0%
BITSFR8              0      0       0       9        0.0%
SFR8                 0      0       0       9        0.0%
BITBANK3            50      0       0      10        0.0%
BITSFR9              0      0       0      10        0.0%
SFR9                 0      0       0      10        0.0%
BANK3               50      0       0      11        0.0%
BITSFR10             0      0       0      11        0.0%
SFR10                0      0       0      11        0.0%
BITBANK4            50      0       0      12        0.0%
BITSFR11             0      0       0      12        0.0%
SFR11                0      0       0      12        0.0%
BANK4               50      0       0      13        0.0%
BITSFR12             0      0       0      13        0.0%
SFR12                0      0       0      13        0.0%
BITBANK5            50      0       0      14        0.0%
BITSFR13             0      0       0      14        0.0%
SFR13                0      0       0      14        0.0%
BANK5               50      0       0      15        0.0%
BITSFR14             0      0       0      15        0.0%
SFR14                0      0       0      15        0.0%
BITBANK6            50      0       0      16        0.0%
BITSFR15             0      0       0      16        0.0%
SFR15                0      0       0      16        0.0%
BANK6               50      0       0      17        0.0%
BITSFR16             0      0       0      17        0.0%
SFR16                0      0       0      17        0.0%
BITBANK7            50      0       0      18        0.0%
BITSFR17             0      0       0      18        0.0%
SFR17                0      0       0      18        0.0%
BANK7               50      0       0      19        0.0%
BITSFR18             0      0       0      19        0.0%
SFR18                0      0       0      19        0.0%
BITSFR19             0      0       0      20        0.0%
SFR19                0      0       0      20        0.0%
ABS                  0      0      18      20        0.0%
BITBANK8            50      0       0      21        0.0%
BITSFR20             0      0       0      21        0.0%
SFR20                0      0       0      21        0.0%
BANK8               50      0       0      22        0.0%
BITSFR21             0      0       0      22        0.0%
SFR21                0      0       0      22        0.0%
BITBANK9            50      0       0      23        0.0%
BITSFR22             0      0       0      23        0.0%
SFR22                0      0       0      23        0.0%
BANK9               50      0       0      24        0.0%
BITSFR23             0      0       0      24        0.0%
SFR23                0      0       0      24        0.0%
BITBANK10           50      0       0      25        0.0%
BITSFR24             0      0       0      25        0.0%
SFR24                0      0       0      25        0.0%
BANK10              50      0       0      26        0.0%
BITSFR25             0      0       0      26        0.0%
SFR25                0      0       0      26        0.0%
BITBANK11           50      0       0      27        0.0%
BITSFR26             0      0       0      27        0.0%
SFR26                0      0       0      27        0.0%
BANK11              50      0       0      28        0.0%
BITSFR27             0      0       0      28        0.0%
SFR27                0      0       0      28        0.0%
BITBANK12           30      0       0      29        0.0%
BITSFR28             0      0       0      29        0.0%
SFR28                0      0       0      29        0.0%
BANK12              30      0       0      30        0.0%
BITSFR29             0      0       0      30        0.0%
SFR29                0      0       0      30        0.0%
BITSFR30             0      0       0      31        0.0%
SFR30                0      0       0      31        0.0%
DATA                 0      0      18      31        0.0%
BITSFR31             0      0       0      32        0.0%
SFR31                0      0       0      32        0.0%


Microchip Technology PIC Macro Assembler V1.41 build -162212810 
Symbol Table                                                                                   Thu Apr 06 15:39:13 2017

                             __CFG_CP$OFF 0000                               __CFG_LVP$ON 0000  
                                     l155 00CA                                       l826 00CC  
                            __CFG_CPD$OFF 0000                                      _LATA 010C  
                                    _LATB 010D                                      _LATC 010E  
                                    i1l76 0011                                      _WPUA 020C  
                                    _WPUB 020D                                      _WPUC 020E  
                                    u9_25 004F                              __CFG_WRT$OFF 0000  
                           __CFG_FCMEN$ON 0000                                      _debo 0020  
                                    _main 00BD                           _TMR0_StartTimer 0126  
                                    fsr0h 0005                                      fsr1h 0007  
                                    fsr0l 0004                                      indf1 0001  
                                    fsr1l 0006                                      btemp 007E  
                           __CFG_BOREN$ON 0000                             __CFG_BORV$LOW 0000  
                                    start 0016                             __CFG_CSWEN$ON 0000  
                           __CFG_MCLRE$ON 0000                   __end_of_TMR0_Initialize 00EA  
          ??_TMR0_DefaultInterruptHandler 0070            __size_of_OSCILLATOR_Initialize 0009  
           __end_of_OSCILLATOR_Initialize 0117                                     ?_main 0070  
                           __CFG_WDTE$OFF 0000                            __CFG_DEBUG$OFF 0000  
                                   i1l750 0061                                     i1l752 0069  
                                   i1l762 009A                                     _OSCEN 091D  
                                   _TMR0H 0016                                     _TMR0L 0015  
                                   _TRISA 008C                                     _TRISB 008D  
                                   _TRISC 008E         __size_of_TMR0_SetInterruptHandler 0006  
               ?_TMR0_SetInterruptHandler 002A                          __end_of_TMR0_ISR 0122  
                          _WDT_Initialize 0122                                     pclath 000A  
                                   status 0003                                     wtemp0 007E  
                         __initialization 0018                              __end_of_main 00D4  
             ?_INTERRUPT_InterruptManager 0070                                    ??_main 002C  
                  __end_of_WDT_Initialize 0126                   __end_of_TMR0_StartTimer 0129  
                                  _ANSELA 018C                                    _ANSELB 018D  
                                  _ANSELC 018E                        __CFG_RSTOSC$HFINT1 0000  
                                  _T0CON0 0017                                    _T0CON1 0018  
                                  _ODCONA 028C                                    _ODCONB 028D  
                                  _ODCONC 028E                                    _OSCFRQ 091F  
                                  _WDTCON 0097                          __end_of_debounce 00A2  
                          __CFG_PWRTE$OFF 0000                            __CFG_STVREN$ON 0000  
                        ?_TMR0_Initialize 0070                                    _button 0104  
                         ?_WDT_Initialize 0070                     __end_of_TMR0_CallBack 00F8  
TMR0_SetInterruptHandler@InterruptHandler 002A                         _SYSTEM_Initialize 00F8  
                 __end_of__initialization 0023                        ?_SYSTEM_Initialize 0070  
                          __pcstackCOMMON 0070                       ??_SYSTEM_Initialize 002C  
                               ?_TMR0_ISR 0070                          ?_TMR0_StartTimer 0070  
               __end_of_SYSTEM_Initialize 0104                                __pbssBANK0 0020  
                              __pnvCOMMON 007A                                __pmaintext 00BD  
        __end_of_TMR0_SetInterruptHandler 011D                                ??_TMR0_ISR 0079  
                         __CFG_PPS1WAY$ON 0000                                __pintentry 0004  
                                 ?_button 0070                                 ?_debounce 0070  
                                 _OSCCON1 0919                                   _OSCCON3 091B  
                                 _OSCTUNE 091E                           __size_of_button 000A  
                                 __ptext1 00F8                                   __ptext2 0122  
                                 __ptext3 00D4                                   __ptext4 0126  
                                 __ptext5 0117                                   __ptext6 00A2  
                                 __ptext7 010E                                   __ptext9 011D  
                   _OSCILLATOR_Initialize 010E                                ??_debounce 0074  
                ??_PIN_MANAGER_Initialize 002A                __size_of_SYSTEM_Initialize 000C  
                    end_of_initialization 0023                          ??_WDT_Initialize 002A  
                _TMR0_SetInterruptHandler 0117                                 _PORTCbits 000E  
                        __CFG_FEXTOSC$OFF 0000                         __size_of_TMR0_ISR 0005  
                  ?_OSCILLATOR_Initialize 0070                            __end_of_button 010E  
                     start_initialization 0018                  __size_of_TMR0_Initialize 0016  
         __size_of_PIN_MANAGER_Initialize 001B                          __CFG_LPBOREN$OFF 0000  
                  __size_of_TMR0_CallBack 000E                                  ??_button 0072  
                               ___latbits 0002                             __pcstackBANK0 002A  
                       __size_of_debounce 007B                     _TMR0_InterruptHandler 007A  
                __size_of_TMR0_StartTimer 0003                    _PIN_MANAGER_Initialize 00A2  
            ??_INTERRUPT_InterruptManager 0079                             _TMR0_CallBack 00EA  
                       ??_TMR0_Initialize 002C                                  _LATAbits 010C  
                                _PIE0bits 0090       __size_of_INTERRUPT_InterruptManager 0012  
              ??_TMR0_SetInterruptHandler 002C                                  _PIR0bits 0010  
                                _TMR0_ISR 011D                            ?_TMR0_CallBack 0070  
                 ??_OSCILLATOR_Initialize 002A                         ??_TMR0_StartTimer 002A  
                              _T0CON0bits 0017                                  _debounce 0027  
                                __ptext10 00EA                                  __ptext11 0027  
                                __ptext12 0104                                  __ptext13 0129  
                           __size_of_main 0017      __end_of_TMR0_DefaultInterruptHandler 012A  
   __size_of_TMR0_DefaultInterruptHandler 0001              _TMR0_DefaultInterruptHandler 0129  
                                int$flags 007E        __end_of_INTERRUPT_InterruptManager 0016  
              _INTERRUPT_InterruptManager 0004                                _INTCONbits 000B  
                         ??_TMR0_CallBack 0079                   __size_of_WDT_Initialize 0004  
                                intlevel1 0000                   ?_PIN_MANAGER_Initialize 0070  
                       __CFG_CLKOUTEN$OFF 0000             ?_TMR0_DefaultInterruptHandler 0070  
                         _TMR0_Initialize 00D4            __end_of_PIN_MANAGER_Initialize 00BD  
                       debounce@debouncer 0078  
